
USART_SIM900.elf:     file format elf32-avr

Sections:
Idx Name          Size      VMA       LMA       File off  Algn
  0 .text         00003dbe  00000000  00000000  00000094  2**1
                  CONTENTS, ALLOC, LOAD, READONLY, CODE
  1 .data         000001e4  00802000  00003dbe  00003e52  2**0
                  CONTENTS, ALLOC, LOAD, DATA
  2 .bss          00000269  008021e4  008021e4  00004036  2**0
                  ALLOC
  3 .comment      00000030  00000000  00000000  00004036  2**0
                  CONTENTS, READONLY
  4 .note.gnu.avr.deviceinfo 00000040  00000000  00000000  00004068  2**2
                  CONTENTS, READONLY
  5 .debug_aranges 00000028  00000000  00000000  000040a8  2**3
                  CONTENTS, READONLY, DEBUGGING
  6 .debug_info   00003f40  00000000  00000000  000040d0  2**0
                  CONTENTS, READONLY, DEBUGGING
  7 .debug_abbrev 00003b20  00000000  00000000  00008010  2**0
                  CONTENTS, READONLY, DEBUGGING
  8 .debug_line   000004d4  00000000  00000000  0000bb30  2**0
                  CONTENTS, READONLY, DEBUGGING
  9 .debug_str    00002969  00000000  00000000  0000c004  2**0
                  CONTENTS, READONLY, DEBUGGING
 10 .debug_ranges 00000020  00000000  00000000  0000e970  2**3
                  CONTENTS, READONLY, DEBUGGING

Disassembly of section .text:

00000000 <__vectors>:
       0:	48 c1       	rjmp	.+656    	; 0x292 <__ctors_end>
       2:	00 00       	nop
       4:	6c c1       	rjmp	.+728    	; 0x2de <__bad_interrupt>
       6:	00 00       	nop
       8:	6a c1       	rjmp	.+724    	; 0x2de <__bad_interrupt>
       a:	00 00       	nop
       c:	68 c1       	rjmp	.+720    	; 0x2de <__bad_interrupt>
       e:	00 00       	nop
      10:	66 c1       	rjmp	.+716    	; 0x2de <__bad_interrupt>
      12:	00 00       	nop
      14:	64 c1       	rjmp	.+712    	; 0x2de <__bad_interrupt>
      16:	00 00       	nop
      18:	62 c1       	rjmp	.+708    	; 0x2de <__bad_interrupt>
      1a:	00 00       	nop
      1c:	60 c1       	rjmp	.+704    	; 0x2de <__bad_interrupt>
      1e:	00 00       	nop
      20:	5e c1       	rjmp	.+700    	; 0x2de <__bad_interrupt>
      22:	00 00       	nop
      24:	5c c1       	rjmp	.+696    	; 0x2de <__bad_interrupt>
      26:	00 00       	nop
      28:	0c 94 96 17 	jmp	0x2f2c	; 0x2f2c <__vector_10>
      2c:	58 c1       	rjmp	.+688    	; 0x2de <__bad_interrupt>
      2e:	00 00       	nop
      30:	56 c1       	rjmp	.+684    	; 0x2de <__bad_interrupt>
      32:	00 00       	nop
      34:	54 c1       	rjmp	.+680    	; 0x2de <__bad_interrupt>
      36:	00 00       	nop
      38:	52 c1       	rjmp	.+676    	; 0x2de <__bad_interrupt>
      3a:	00 00       	nop
      3c:	9b c4       	rjmp	.+2358   	; 0x974 <__vector_15>
      3e:	00 00       	nop
      40:	d1 c4       	rjmp	.+2466   	; 0x9e4 <__vector_16>
      42:	00 00       	nop
      44:	07 c5       	rjmp	.+2574   	; 0xa54 <__vector_17>
      46:	00 00       	nop
      48:	3d c5       	rjmp	.+2682   	; 0xac4 <__vector_18>
      4a:	00 00       	nop
      4c:	73 c5       	rjmp	.+2790   	; 0xb34 <__vector_19>
      4e:	00 00       	nop
      50:	a9 c5       	rjmp	.+2898   	; 0xba4 <__vector_20>
      52:	00 00       	nop
      54:	df c5       	rjmp	.+3006   	; 0xc14 <__vector_21>
      56:	00 00       	nop
      58:	15 c6       	rjmp	.+3114   	; 0xc84 <__vector_22>
      5a:	00 00       	nop
      5c:	4b c6       	rjmp	.+3222   	; 0xcf4 <__vector_23>
      5e:	00 00       	nop
      60:	3e c1       	rjmp	.+636    	; 0x2de <__bad_interrupt>
      62:	00 00       	nop
      64:	3c c1       	rjmp	.+632    	; 0x2de <__bad_interrupt>
      66:	00 00       	nop
      68:	3a c1       	rjmp	.+628    	; 0x2de <__bad_interrupt>
      6a:	00 00       	nop
      6c:	38 c1       	rjmp	.+624    	; 0x2de <__bad_interrupt>
      6e:	00 00       	nop
      70:	36 c1       	rjmp	.+620    	; 0x2de <__bad_interrupt>
      72:	00 00       	nop
      74:	34 c1       	rjmp	.+616    	; 0x2de <__bad_interrupt>
      76:	00 00       	nop
      78:	32 c1       	rjmp	.+612    	; 0x2de <__bad_interrupt>
      7a:	00 00       	nop
      7c:	30 c1       	rjmp	.+608    	; 0x2de <__bad_interrupt>
      7e:	00 00       	nop
      80:	2e c1       	rjmp	.+604    	; 0x2de <__bad_interrupt>
      82:	00 00       	nop
      84:	2c c1       	rjmp	.+600    	; 0x2de <__bad_interrupt>
      86:	00 00       	nop
      88:	2a c1       	rjmp	.+596    	; 0x2de <__bad_interrupt>
      8a:	00 00       	nop
      8c:	28 c1       	rjmp	.+592    	; 0x2de <__bad_interrupt>
      8e:	00 00       	nop
      90:	26 c1       	rjmp	.+588    	; 0x2de <__bad_interrupt>
      92:	00 00       	nop
      94:	24 c1       	rjmp	.+584    	; 0x2de <__bad_interrupt>
      96:	00 00       	nop
      98:	22 c1       	rjmp	.+580    	; 0x2de <__bad_interrupt>
      9a:	00 00       	nop
      9c:	87 c2       	rjmp	.+1294   	; 0x5ac <__vector_39>
      9e:	00 00       	nop
      a0:	c2 c2       	rjmp	.+1412   	; 0x626 <__vector_40>
      a2:	00 00       	nop
      a4:	fd c2       	rjmp	.+1530   	; 0x6a0 <__vector_41>
      a6:	00 00       	nop
      a8:	38 c3       	rjmp	.+1648   	; 0x71a <__vector_42>
      aa:	00 00       	nop
      ac:	18 c1       	rjmp	.+560    	; 0x2de <__bad_interrupt>
      ae:	00 00       	nop
      b0:	16 c1       	rjmp	.+556    	; 0x2de <__bad_interrupt>
      b2:	00 00       	nop
      b4:	14 c1       	rjmp	.+552    	; 0x2de <__bad_interrupt>
      b6:	00 00       	nop
      b8:	12 c1       	rjmp	.+548    	; 0x2de <__bad_interrupt>
      ba:	00 00       	nop
      bc:	0c 94 e2 08 	jmp	0x11c4	; 0x11c4 <__vector_47>
      c0:	0c 94 1a 09 	jmp	0x1234	; 0x1234 <__vector_48>
      c4:	0c 94 52 09 	jmp	0x12a4	; 0x12a4 <__vector_49>
      c8:	0c 94 8a 09 	jmp	0x1314	; 0x1314 <__vector_50>
      cc:	0c 94 c2 09 	jmp	0x1384	; 0x1384 <__vector_51>
      d0:	0c 94 fa 09 	jmp	0x13f4	; 0x13f4 <__vector_52>
      d4:	0c 94 32 0a 	jmp	0x1464	; 0x1464 <__vector_53>
      d8:	0c 94 6a 0a 	jmp	0x14d4	; 0x14d4 <__vector_54>
      dc:	0c 94 a2 0a 	jmp	0x1544	; 0x1544 <__vector_55>
      e0:	0c 94 da 0a 	jmp	0x15b4	; 0x15b4 <__vector_56>
      e4:	fc c0       	rjmp	.+504    	; 0x2de <__bad_interrupt>
      e6:	00 00       	nop
      e8:	fa c0       	rjmp	.+500    	; 0x2de <__bad_interrupt>
      ea:	00 00       	nop
      ec:	f8 c0       	rjmp	.+496    	; 0x2de <__bad_interrupt>
      ee:	00 00       	nop
      f0:	f6 c0       	rjmp	.+492    	; 0x2de <__bad_interrupt>
      f2:	00 00       	nop
      f4:	f4 c0       	rjmp	.+488    	; 0x2de <__bad_interrupt>
      f6:	00 00       	nop
      f8:	f2 c0       	rjmp	.+484    	; 0x2de <__bad_interrupt>
      fa:	00 00       	nop
      fc:	f0 c0       	rjmp	.+480    	; 0x2de <__bad_interrupt>
      fe:	00 00       	nop
     100:	ee c0       	rjmp	.+476    	; 0x2de <__bad_interrupt>
     102:	00 00       	nop
     104:	ec c0       	rjmp	.+472    	; 0x2de <__bad_interrupt>
     106:	00 00       	nop
     108:	ea c0       	rjmp	.+468    	; 0x2de <__bad_interrupt>
     10a:	00 00       	nop
     10c:	e8 c0       	rjmp	.+464    	; 0x2de <__bad_interrupt>
     10e:	00 00       	nop
     110:	e6 c0       	rjmp	.+460    	; 0x2de <__bad_interrupt>
     112:	00 00       	nop
     114:	e4 c0       	rjmp	.+456    	; 0x2de <__bad_interrupt>
     116:	00 00       	nop
     118:	e2 c0       	rjmp	.+452    	; 0x2de <__bad_interrupt>
     11a:	00 00       	nop
     11c:	53 c1       	rjmp	.+678    	; 0x3c4 <__vector_71>
     11e:	00 00       	nop
     120:	8e c1       	rjmp	.+796    	; 0x43e <__vector_72>
     122:	00 00       	nop
     124:	c9 c1       	rjmp	.+914    	; 0x4b8 <__vector_73>
     126:	00 00       	nop
     128:	04 c2       	rjmp	.+1032   	; 0x532 <__vector_74>
     12a:	00 00       	nop
     12c:	d8 c0       	rjmp	.+432    	; 0x2de <__bad_interrupt>
     12e:	00 00       	nop
     130:	d6 c0       	rjmp	.+428    	; 0x2de <__bad_interrupt>
     132:	00 00       	nop
     134:	17 c6       	rjmp	.+3118   	; 0xd64 <__vector_77>
     136:	00 00       	nop
     138:	4d c6       	rjmp	.+3226   	; 0xdd4 <__vector_78>
     13a:	00 00       	nop
     13c:	83 c6       	rjmp	.+3334   	; 0xe44 <__vector_79>
     13e:	00 00       	nop
     140:	b9 c6       	rjmp	.+3442   	; 0xeb4 <__vector_80>
     142:	00 00       	nop
     144:	ef c6       	rjmp	.+3550   	; 0xf24 <__vector_81>
     146:	00 00       	nop
     148:	25 c7       	rjmp	.+3658   	; 0xf94 <__vector_82>
     14a:	00 00       	nop
     14c:	5b c7       	rjmp	.+3766   	; 0x1004 <__vector_83>
     14e:	00 00       	nop
     150:	91 c7       	rjmp	.+3874   	; 0x1074 <__vector_84>
     152:	00 00       	nop
     154:	c7 c7       	rjmp	.+3982   	; 0x10e4 <__vector_85>
     156:	00 00       	nop
     158:	fd c7       	rjmp	.+4090   	; 0x1154 <__vector_86>
     15a:	00 00       	nop
     15c:	c0 c0       	rjmp	.+384    	; 0x2de <__bad_interrupt>
     15e:	00 00       	nop
     160:	be c0       	rjmp	.+380    	; 0x2de <__bad_interrupt>
     162:	00 00       	nop
     164:	bc c0       	rjmp	.+376    	; 0x2de <__bad_interrupt>
     166:	00 00       	nop
     168:	ba c0       	rjmp	.+372    	; 0x2de <__bad_interrupt>
     16a:	00 00       	nop
     16c:	b8 c0       	rjmp	.+368    	; 0x2de <__bad_interrupt>
     16e:	00 00       	nop
     170:	b6 c0       	rjmp	.+364    	; 0x2de <__bad_interrupt>
     172:	00 00       	nop
     174:	b4 c0       	rjmp	.+360    	; 0x2de <__bad_interrupt>
     176:	00 00       	nop
     178:	b2 c0       	rjmp	.+356    	; 0x2de <__bad_interrupt>
     17a:	00 00       	nop
     17c:	b0 c0       	rjmp	.+352    	; 0x2de <__bad_interrupt>
     17e:	00 00       	nop
     180:	ae c0       	rjmp	.+348    	; 0x2de <__bad_interrupt>
     182:	00 00       	nop
     184:	ac c0       	rjmp	.+344    	; 0x2de <__bad_interrupt>
     186:	00 00       	nop
     188:	aa c0       	rjmp	.+340    	; 0x2de <__bad_interrupt>
     18a:	00 00       	nop
     18c:	a8 c0       	rjmp	.+336    	; 0x2de <__bad_interrupt>
     18e:	00 00       	nop
     190:	a6 c0       	rjmp	.+332    	; 0x2de <__bad_interrupt>
     192:	00 00       	nop
     194:	a4 c0       	rjmp	.+328    	; 0x2de <__bad_interrupt>
     196:	00 00       	nop
     198:	a2 c0       	rjmp	.+324    	; 0x2de <__bad_interrupt>
     19a:	00 00       	nop
     19c:	a0 c0       	rjmp	.+320    	; 0x2de <__bad_interrupt>
     19e:	00 00       	nop
     1a0:	9e c0       	rjmp	.+316    	; 0x2de <__bad_interrupt>
     1a2:	00 00       	nop
     1a4:	9c c0       	rjmp	.+312    	; 0x2de <__bad_interrupt>
     1a6:	00 00       	nop
     1a8:	9a c0       	rjmp	.+308    	; 0x2de <__bad_interrupt>
     1aa:	00 00       	nop
     1ac:	98 c0       	rjmp	.+304    	; 0x2de <__bad_interrupt>
     1ae:	00 00       	nop
     1b0:	0c 94 12 0b 	jmp	0x1624	; 0x1624 <__vector_108>
     1b4:	0c 94 4a 0b 	jmp	0x1694	; 0x1694 <__vector_109>
     1b8:	0c 94 82 0b 	jmp	0x1704	; 0x1704 <__vector_110>
     1bc:	0c 94 ba 0b 	jmp	0x1774	; 0x1774 <__vector_111>
     1c0:	0c 94 f2 0b 	jmp	0x17e4	; 0x17e4 <__vector_112>
     1c4:	0c 94 2a 0c 	jmp	0x1854	; 0x1854 <__vector_113>
     1c8:	0c 94 62 0c 	jmp	0x18c4	; 0x18c4 <__vector_114>
     1cc:	0c 94 9a 0c 	jmp	0x1934	; 0x1934 <__vector_115>
     1d0:	0c 94 d2 0c 	jmp	0x19a4	; 0x19a4 <__vector_116>
     1d4:	0c 94 0a 0d 	jmp	0x1a14	; 0x1a14 <__vector_117>
     1d8:	82 c0       	rjmp	.+260    	; 0x2de <__bad_interrupt>
     1da:	00 00       	nop
     1dc:	80 c0       	rjmp	.+256    	; 0x2de <__bad_interrupt>
     1de:	00 00       	nop
     1e0:	7e c0       	rjmp	.+252    	; 0x2de <__bad_interrupt>
     1e2:	00 00       	nop
     1e4:	7c c0       	rjmp	.+248    	; 0x2de <__bad_interrupt>
     1e6:	00 00       	nop
     1e8:	7a c0       	rjmp	.+244    	; 0x2de <__bad_interrupt>
     1ea:	00 00       	nop
     1ec:	78 c0       	rjmp	.+240    	; 0x2de <__bad_interrupt>
     1ee:	00 00       	nop
     1f0:	76 c0       	rjmp	.+236    	; 0x2de <__bad_interrupt>
     1f2:	00 00       	nop
     1f4:	74 c0       	rjmp	.+232    	; 0x2de <__bad_interrupt>
     1f6:	00 00       	nop
     1f8:	72 c0       	rjmp	.+228    	; 0x2de <__bad_interrupt>
     1fa:	00 00       	nop
     1fc:	e0 17       	cp	r30, r16
     1fe:	e4 17       	cp	r30, r20
     200:	30 18       	sub	r3, r0
     202:	4e 18       	sub	r4, r14
     204:	55 18       	sub	r5, r5
     206:	5a 18       	sub	r5, r10
     208:	70 18       	sub	r7, r0
     20a:	7a 18       	sub	r7, r10
     20c:	7d 18       	sub	r7, r13
     20e:	82 18       	sub	r8, r2
     210:	07 63       	ori	r16, 0x37	; 55
     212:	42 36       	cpi	r20, 0x62	; 98
     214:	b7 9b       	sbis	0x16, 7	; 22
     216:	d8 a7       	std	Y+40, r29	; 0x28
     218:	1a 39       	cpi	r17, 0x9A	; 154
     21a:	68 56       	subi	r22, 0x68	; 104
     21c:	18 ae       	std	Y+56, r1	; 0x38
     21e:	ba ab       	std	Y+50, r27	; 0x32
     220:	55 8c       	ldd	r5, Z+29	; 0x1d
     222:	1d 3c       	cpi	r17, 0xCD	; 205
     224:	b7 cc       	rjmp	.-1682   	; 0xfffffb94 <__eeprom_end+0xff7efb94>
     226:	57 63       	ori	r21, 0x37	; 55
     228:	bd 6d       	ori	r27, 0xDD	; 221
     22a:	ed fd       	.word	0xfded	; ????
     22c:	75 3e       	cpi	r23, 0xE5	; 229
     22e:	f6 17       	cp	r31, r22
     230:	72 31       	cpi	r23, 0x12	; 18
     232:	bf 00       	.word	0x00bf	; ????
     234:	00 00       	nop
     236:	80 3f       	cpi	r24, 0xF0	; 240
     238:	08 00       	.word	0x0008	; ????
     23a:	00 00       	nop
     23c:	be 92       	st	-X, r11
     23e:	24 49       	sbci	r18, 0x94	; 148
     240:	12 3e       	cpi	r17, 0xE2	; 226
     242:	ab aa       	std	Y+51, r10	; 0x33
     244:	aa 2a       	or	r10, r26
     246:	be cd       	rjmp	.-1156   	; 0xfffffdc4 <__eeprom_end+0xff7efdc4>
     248:	cc cc       	rjmp	.-1640   	; 0xfffffbe2 <__eeprom_end+0xff7efbe2>
     24a:	4c 3e       	cpi	r20, 0xEC	; 236
     24c:	00 00       	nop
     24e:	00 80       	ld	r0, Z
     250:	be ab       	std	Y+54, r27	; 0x36
     252:	aa aa       	std	Y+50, r10	; 0x32
     254:	aa 3e       	cpi	r26, 0xEA	; 234
     256:	00 00       	nop
     258:	00 00       	nop
     25a:	bf 00       	.word	0x00bf	; ????
     25c:	00 00       	nop
     25e:	80 3f       	cpi	r24, 0xF0	; 240
     260:	00 00       	nop
     262:	00 00       	nop
     264:	00 08       	sbc	r0, r0
     266:	41 78       	andi	r20, 0x81	; 129
     268:	d3 bb       	out	0x13, r29	; 19
     26a:	43 87       	std	Z+11, r20	; 0x0b
     26c:	d1 13       	cpse	r29, r17
     26e:	3d 19       	sub	r19, r13
     270:	0e 3c       	cpi	r16, 0xCE	; 206
     272:	c3 bd       	out	0x23, r28	; 35
     274:	42 82       	std	Z+2, r4	; 0x02
     276:	ad 2b       	or	r26, r29
     278:	3e 68       	ori	r19, 0x8E	; 142
     27a:	ec 82       	std	Y+4, r14	; 0x04
     27c:	76 be       	out	0x36, r7	; 54
     27e:	d9 8f       	std	Y+25, r29	; 0x19
     280:	e1 a9       	ldd	r30, Z+49	; 0x31
     282:	3e 4c       	sbci	r19, 0xCE	; 206
     284:	80 ef       	ldi	r24, 0xF0	; 240
     286:	ff be       	out	0x3f, r15	; 63
     288:	01 c4       	rjmp	.+2050   	; 0xa8c <__vector_17+0x38>
     28a:	ff 7f       	andi	r31, 0xFF	; 255
     28c:	3f 00       	.word	0x003f	; ????
     28e:	00 00       	nop
	...

00000292 <__ctors_end>:
     292:	11 24       	eor	r1, r1
     294:	1f be       	out	0x3f, r1	; 63
     296:	cf ef       	ldi	r28, 0xFF	; 255
     298:	cd bf       	out	0x3d, r28	; 61
     29a:	df e3       	ldi	r29, 0x3F	; 63
     29c:	de bf       	out	0x3e, r29	; 62
     29e:	00 e0       	ldi	r16, 0x00	; 0
     2a0:	0c bf       	out	0x3c, r16	; 60
     2a2:	18 be       	out	0x38, r1	; 56
     2a4:	19 be       	out	0x39, r1	; 57
     2a6:	1a be       	out	0x3a, r1	; 58
     2a8:	1b be       	out	0x3b, r1	; 59

000002aa <__do_copy_data>:
     2aa:	11 e2       	ldi	r17, 0x21	; 33
     2ac:	a0 e0       	ldi	r26, 0x00	; 0
     2ae:	b0 e2       	ldi	r27, 0x20	; 32
     2b0:	ee eb       	ldi	r30, 0xBE	; 190
     2b2:	fd e3       	ldi	r31, 0x3D	; 61
     2b4:	00 e0       	ldi	r16, 0x00	; 0
     2b6:	0b bf       	out	0x3b, r16	; 59
     2b8:	02 c0       	rjmp	.+4      	; 0x2be <__do_copy_data+0x14>
     2ba:	07 90       	elpm	r0, Z+
     2bc:	0d 92       	st	X+, r0
     2be:	a4 3e       	cpi	r26, 0xE4	; 228
     2c0:	b1 07       	cpc	r27, r17
     2c2:	d9 f7       	brne	.-10     	; 0x2ba <__do_copy_data+0x10>
     2c4:	1b be       	out	0x3b, r1	; 59

000002c6 <__do_clear_bss>:
     2c6:	24 e2       	ldi	r18, 0x24	; 36
     2c8:	a4 ee       	ldi	r26, 0xE4	; 228
     2ca:	b1 e2       	ldi	r27, 0x21	; 33
     2cc:	01 c0       	rjmp	.+2      	; 0x2d0 <.do_clear_bss_start>

000002ce <.do_clear_bss_loop>:
     2ce:	1d 92       	st	X+, r1

000002d0 <.do_clear_bss_start>:
     2d0:	ad 34       	cpi	r26, 0x4D	; 77
     2d2:	b2 07       	cpc	r27, r18
     2d4:	e1 f7       	brne	.-8      	; 0x2ce <.do_clear_bss_loop>
     2d6:	0e 94 b5 18 	call	0x316a	; 0x316a <main>
     2da:	0c 94 dd 1e 	jmp	0x3dba	; 0x3dba <_exit>

000002de <__bad_interrupt>:
     2de:	90 ce       	rjmp	.-736    	; 0x0 <__vectors>

000002e0 <cpu_irq_save>:
     2e0:	cf 93       	push	r28
     2e2:	df 93       	push	r29
     2e4:	1f 92       	push	r1
     2e6:	cd b7       	in	r28, 0x3d	; 61
     2e8:	de b7       	in	r29, 0x3e	; 62
     2ea:	8f b7       	in	r24, 0x3f	; 63
     2ec:	89 83       	std	Y+1, r24	; 0x01
     2ee:	f8 94       	cli
     2f0:	89 81       	ldd	r24, Y+1	; 0x01
     2f2:	0f 90       	pop	r0
     2f4:	df 91       	pop	r29
     2f6:	cf 91       	pop	r28
     2f8:	08 95       	ret

000002fa <adc_enable_clock>:
     2fa:	81 15       	cp	r24, r1
     2fc:	22 e0       	ldi	r18, 0x02	; 2
     2fe:	92 07       	cpc	r25, r18
     300:	59 f4       	brne	.+22     	; 0x318 <adc_enable_clock+0x1e>
     302:	80 91 e5 21 	lds	r24, 0x21E5	; 0x8021e5 <adca_enable_count>
     306:	91 e0       	ldi	r25, 0x01	; 1
     308:	98 0f       	add	r25, r24
     30a:	90 93 e5 21 	sts	0x21E5, r25	; 0x8021e5 <adca_enable_count>
     30e:	81 11       	cpse	r24, r1
     310:	12 c0       	rjmp	.+36     	; 0x336 <adc_enable_clock+0x3c>
     312:	62 e0       	ldi	r22, 0x02	; 2
     314:	81 e0       	ldi	r24, 0x01	; 1
     316:	0d c0       	rjmp	.+26     	; 0x332 <adc_enable_clock+0x38>
     318:	80 34       	cpi	r24, 0x40	; 64
     31a:	92 40       	sbci	r25, 0x02	; 2
     31c:	61 f4       	brne	.+24     	; 0x336 <adc_enable_clock+0x3c>
     31e:	80 91 e4 21 	lds	r24, 0x21E4	; 0x8021e4 <__data_end>
     322:	91 e0       	ldi	r25, 0x01	; 1
     324:	98 0f       	add	r25, r24
     326:	90 93 e4 21 	sts	0x21E4, r25	; 0x8021e4 <__data_end>
     32a:	81 11       	cpse	r24, r1
     32c:	04 c0       	rjmp	.+8      	; 0x336 <adc_enable_clock+0x3c>
     32e:	62 e0       	ldi	r22, 0x02	; 2
     330:	82 e0       	ldi	r24, 0x02	; 2
     332:	0c 94 3f 10 	jmp	0x207e	; 0x207e <sysclk_enable_module>
     336:	08 95       	ret

00000338 <adc_disable_clock>:
     338:	81 15       	cp	r24, r1
     33a:	22 e0       	ldi	r18, 0x02	; 2
     33c:	92 07       	cpc	r25, r18
     33e:	51 f4       	brne	.+20     	; 0x354 <adc_disable_clock+0x1c>
     340:	80 91 e5 21 	lds	r24, 0x21E5	; 0x8021e5 <adca_enable_count>
     344:	81 50       	subi	r24, 0x01	; 1
     346:	80 93 e5 21 	sts	0x21E5, r24	; 0x8021e5 <adca_enable_count>
     34a:	81 11       	cpse	r24, r1
     34c:	11 c0       	rjmp	.+34     	; 0x370 <adc_disable_clock+0x38>
     34e:	62 e0       	ldi	r22, 0x02	; 2
     350:	81 e0       	ldi	r24, 0x01	; 1
     352:	0c c0       	rjmp	.+24     	; 0x36c <adc_disable_clock+0x34>
     354:	80 34       	cpi	r24, 0x40	; 64
     356:	92 40       	sbci	r25, 0x02	; 2
     358:	59 f4       	brne	.+22     	; 0x370 <adc_disable_clock+0x38>
     35a:	80 91 e4 21 	lds	r24, 0x21E4	; 0x8021e4 <__data_end>
     35e:	81 50       	subi	r24, 0x01	; 1
     360:	80 93 e4 21 	sts	0x21E4, r24	; 0x8021e4 <__data_end>
     364:	81 11       	cpse	r24, r1
     366:	04 c0       	rjmp	.+8      	; 0x370 <adc_disable_clock+0x38>
     368:	62 e0       	ldi	r22, 0x02	; 2
     36a:	82 e0       	ldi	r24, 0x02	; 2
     36c:	0c 94 55 10 	jmp	0x20aa	; 0x20aa <sysclk_disable_module>
     370:	08 95       	ret

00000372 <adc_enable>:
     372:	1f 93       	push	r17
     374:	cf 93       	push	r28
     376:	df 93       	push	r29
     378:	ec 01       	movw	r28, r24
     37a:	b2 df       	rcall	.-156    	; 0x2e0 <cpu_irq_save>
     37c:	18 2f       	mov	r17, r24
     37e:	ce 01       	movw	r24, r28
     380:	bc df       	rcall	.-136    	; 0x2fa <adc_enable_clock>
     382:	88 81       	ld	r24, Y
     384:	81 60       	ori	r24, 0x01	; 1
     386:	88 83       	st	Y, r24
     388:	1f bf       	out	0x3f, r17	; 63
     38a:	80 91 be 23 	lds	r24, 0x23BE	; 0x8023be <sleepmgr_locks+0x1>
     38e:	8f 3f       	cpi	r24, 0xFF	; 255
     390:	09 f4       	brne	.+2      	; 0x394 <adc_enable+0x22>
     392:	ff cf       	rjmp	.-2      	; 0x392 <adc_enable+0x20>
     394:	a5 df       	rcall	.-182    	; 0x2e0 <cpu_irq_save>
     396:	90 91 be 23 	lds	r25, 0x23BE	; 0x8023be <sleepmgr_locks+0x1>
     39a:	9f 5f       	subi	r25, 0xFF	; 255
     39c:	90 93 be 23 	sts	0x23BE, r25	; 0x8023be <sleepmgr_locks+0x1>
     3a0:	8f bf       	out	0x3f, r24	; 63
     3a2:	df 91       	pop	r29
     3a4:	cf 91       	pop	r28
     3a6:	1f 91       	pop	r17
     3a8:	08 95       	ret

000003aa <cpu_irq_save>:
     3aa:	cf 93       	push	r28
     3ac:	df 93       	push	r29
     3ae:	1f 92       	push	r1
     3b0:	cd b7       	in	r28, 0x3d	; 61
     3b2:	de b7       	in	r29, 0x3e	; 62
     3b4:	8f b7       	in	r24, 0x3f	; 63
     3b6:	89 83       	std	Y+1, r24	; 0x01
     3b8:	f8 94       	cli
     3ba:	89 81       	ldd	r24, Y+1	; 0x01
     3bc:	0f 90       	pop	r0
     3be:	df 91       	pop	r29
     3c0:	cf 91       	pop	r28
     3c2:	08 95       	ret

000003c4 <__vector_71>:
     3c4:	1f 92       	push	r1
     3c6:	0f 92       	push	r0
     3c8:	0f b6       	in	r0, 0x3f	; 63
     3ca:	0f 92       	push	r0
     3cc:	11 24       	eor	r1, r1
     3ce:	08 b6       	in	r0, 0x38	; 56
     3d0:	0f 92       	push	r0
     3d2:	18 be       	out	0x38, r1	; 56
     3d4:	09 b6       	in	r0, 0x39	; 57
     3d6:	0f 92       	push	r0
     3d8:	19 be       	out	0x39, r1	; 57
     3da:	0b b6       	in	r0, 0x3b	; 59
     3dc:	0f 92       	push	r0
     3de:	1b be       	out	0x3b, r1	; 59
     3e0:	2f 93       	push	r18
     3e2:	3f 93       	push	r19
     3e4:	4f 93       	push	r20
     3e6:	5f 93       	push	r21
     3e8:	6f 93       	push	r22
     3ea:	7f 93       	push	r23
     3ec:	8f 93       	push	r24
     3ee:	9f 93       	push	r25
     3f0:	af 93       	push	r26
     3f2:	bf 93       	push	r27
     3f4:	ef 93       	push	r30
     3f6:	ff 93       	push	r31
     3f8:	40 91 24 02 	lds	r20, 0x0224	; 0x800224 <__TEXT_REGION_LENGTH__+0x700224>
     3fc:	50 91 25 02 	lds	r21, 0x0225	; 0x800225 <__TEXT_REGION_LENGTH__+0x700225>
     400:	e0 91 c5 23 	lds	r30, 0x23C5	; 0x8023c5 <adca_callback>
     404:	f0 91 c6 23 	lds	r31, 0x23C6	; 0x8023c6 <adca_callback+0x1>
     408:	61 e0       	ldi	r22, 0x01	; 1
     40a:	80 e0       	ldi	r24, 0x00	; 0
     40c:	92 e0       	ldi	r25, 0x02	; 2
     40e:	19 95       	eicall
     410:	ff 91       	pop	r31
     412:	ef 91       	pop	r30
     414:	bf 91       	pop	r27
     416:	af 91       	pop	r26
     418:	9f 91       	pop	r25
     41a:	8f 91       	pop	r24
     41c:	7f 91       	pop	r23
     41e:	6f 91       	pop	r22
     420:	5f 91       	pop	r21
     422:	4f 91       	pop	r20
     424:	3f 91       	pop	r19
     426:	2f 91       	pop	r18
     428:	0f 90       	pop	r0
     42a:	0b be       	out	0x3b, r0	; 59
     42c:	0f 90       	pop	r0
     42e:	09 be       	out	0x39, r0	; 57
     430:	0f 90       	pop	r0
     432:	08 be       	out	0x38, r0	; 56
     434:	0f 90       	pop	r0
     436:	0f be       	out	0x3f, r0	; 63
     438:	0f 90       	pop	r0
     43a:	1f 90       	pop	r1
     43c:	18 95       	reti

0000043e <__vector_72>:
     43e:	1f 92       	push	r1
     440:	0f 92       	push	r0
     442:	0f b6       	in	r0, 0x3f	; 63
     444:	0f 92       	push	r0
     446:	11 24       	eor	r1, r1
     448:	08 b6       	in	r0, 0x38	; 56
     44a:	0f 92       	push	r0
     44c:	18 be       	out	0x38, r1	; 56
     44e:	09 b6       	in	r0, 0x39	; 57
     450:	0f 92       	push	r0
     452:	19 be       	out	0x39, r1	; 57
     454:	0b b6       	in	r0, 0x3b	; 59
     456:	0f 92       	push	r0
     458:	1b be       	out	0x3b, r1	; 59
     45a:	2f 93       	push	r18
     45c:	3f 93       	push	r19
     45e:	4f 93       	push	r20
     460:	5f 93       	push	r21
     462:	6f 93       	push	r22
     464:	7f 93       	push	r23
     466:	8f 93       	push	r24
     468:	9f 93       	push	r25
     46a:	af 93       	push	r26
     46c:	bf 93       	push	r27
     46e:	ef 93       	push	r30
     470:	ff 93       	push	r31
     472:	40 91 2c 02 	lds	r20, 0x022C	; 0x80022c <__TEXT_REGION_LENGTH__+0x70022c>
     476:	50 91 2d 02 	lds	r21, 0x022D	; 0x80022d <__TEXT_REGION_LENGTH__+0x70022d>
     47a:	e0 91 c5 23 	lds	r30, 0x23C5	; 0x8023c5 <adca_callback>
     47e:	f0 91 c6 23 	lds	r31, 0x23C6	; 0x8023c6 <adca_callback+0x1>
     482:	62 e0       	ldi	r22, 0x02	; 2
     484:	80 e0       	ldi	r24, 0x00	; 0
     486:	92 e0       	ldi	r25, 0x02	; 2
     488:	19 95       	eicall
     48a:	ff 91       	pop	r31
     48c:	ef 91       	pop	r30
     48e:	bf 91       	pop	r27
     490:	af 91       	pop	r26
     492:	9f 91       	pop	r25
     494:	8f 91       	pop	r24
     496:	7f 91       	pop	r23
     498:	6f 91       	pop	r22
     49a:	5f 91       	pop	r21
     49c:	4f 91       	pop	r20
     49e:	3f 91       	pop	r19
     4a0:	2f 91       	pop	r18
     4a2:	0f 90       	pop	r0
     4a4:	0b be       	out	0x3b, r0	; 59
     4a6:	0f 90       	pop	r0
     4a8:	09 be       	out	0x39, r0	; 57
     4aa:	0f 90       	pop	r0
     4ac:	08 be       	out	0x38, r0	; 56
     4ae:	0f 90       	pop	r0
     4b0:	0f be       	out	0x3f, r0	; 63
     4b2:	0f 90       	pop	r0
     4b4:	1f 90       	pop	r1
     4b6:	18 95       	reti

000004b8 <__vector_73>:
     4b8:	1f 92       	push	r1
     4ba:	0f 92       	push	r0
     4bc:	0f b6       	in	r0, 0x3f	; 63
     4be:	0f 92       	push	r0
     4c0:	11 24       	eor	r1, r1
     4c2:	08 b6       	in	r0, 0x38	; 56
     4c4:	0f 92       	push	r0
     4c6:	18 be       	out	0x38, r1	; 56
     4c8:	09 b6       	in	r0, 0x39	; 57
     4ca:	0f 92       	push	r0
     4cc:	19 be       	out	0x39, r1	; 57
     4ce:	0b b6       	in	r0, 0x3b	; 59
     4d0:	0f 92       	push	r0
     4d2:	1b be       	out	0x3b, r1	; 59
     4d4:	2f 93       	push	r18
     4d6:	3f 93       	push	r19
     4d8:	4f 93       	push	r20
     4da:	5f 93       	push	r21
     4dc:	6f 93       	push	r22
     4de:	7f 93       	push	r23
     4e0:	8f 93       	push	r24
     4e2:	9f 93       	push	r25
     4e4:	af 93       	push	r26
     4e6:	bf 93       	push	r27
     4e8:	ef 93       	push	r30
     4ea:	ff 93       	push	r31
     4ec:	40 91 34 02 	lds	r20, 0x0234	; 0x800234 <__TEXT_REGION_LENGTH__+0x700234>
     4f0:	50 91 35 02 	lds	r21, 0x0235	; 0x800235 <__TEXT_REGION_LENGTH__+0x700235>
     4f4:	e0 91 c5 23 	lds	r30, 0x23C5	; 0x8023c5 <adca_callback>
     4f8:	f0 91 c6 23 	lds	r31, 0x23C6	; 0x8023c6 <adca_callback+0x1>
     4fc:	64 e0       	ldi	r22, 0x04	; 4
     4fe:	80 e0       	ldi	r24, 0x00	; 0
     500:	92 e0       	ldi	r25, 0x02	; 2
     502:	19 95       	eicall
     504:	ff 91       	pop	r31
     506:	ef 91       	pop	r30
     508:	bf 91       	pop	r27
     50a:	af 91       	pop	r26
     50c:	9f 91       	pop	r25
     50e:	8f 91       	pop	r24
     510:	7f 91       	pop	r23
     512:	6f 91       	pop	r22
     514:	5f 91       	pop	r21
     516:	4f 91       	pop	r20
     518:	3f 91       	pop	r19
     51a:	2f 91       	pop	r18
     51c:	0f 90       	pop	r0
     51e:	0b be       	out	0x3b, r0	; 59
     520:	0f 90       	pop	r0
     522:	09 be       	out	0x39, r0	; 57
     524:	0f 90       	pop	r0
     526:	08 be       	out	0x38, r0	; 56
     528:	0f 90       	pop	r0
     52a:	0f be       	out	0x3f, r0	; 63
     52c:	0f 90       	pop	r0
     52e:	1f 90       	pop	r1
     530:	18 95       	reti

00000532 <__vector_74>:
     532:	1f 92       	push	r1
     534:	0f 92       	push	r0
     536:	0f b6       	in	r0, 0x3f	; 63
     538:	0f 92       	push	r0
     53a:	11 24       	eor	r1, r1
     53c:	08 b6       	in	r0, 0x38	; 56
     53e:	0f 92       	push	r0
     540:	18 be       	out	0x38, r1	; 56
     542:	09 b6       	in	r0, 0x39	; 57
     544:	0f 92       	push	r0
     546:	19 be       	out	0x39, r1	; 57
     548:	0b b6       	in	r0, 0x3b	; 59
     54a:	0f 92       	push	r0
     54c:	1b be       	out	0x3b, r1	; 59
     54e:	2f 93       	push	r18
     550:	3f 93       	push	r19
     552:	4f 93       	push	r20
     554:	5f 93       	push	r21
     556:	6f 93       	push	r22
     558:	7f 93       	push	r23
     55a:	8f 93       	push	r24
     55c:	9f 93       	push	r25
     55e:	af 93       	push	r26
     560:	bf 93       	push	r27
     562:	ef 93       	push	r30
     564:	ff 93       	push	r31
     566:	40 91 3c 02 	lds	r20, 0x023C	; 0x80023c <__TEXT_REGION_LENGTH__+0x70023c>
     56a:	50 91 3d 02 	lds	r21, 0x023D	; 0x80023d <__TEXT_REGION_LENGTH__+0x70023d>
     56e:	e0 91 c5 23 	lds	r30, 0x23C5	; 0x8023c5 <adca_callback>
     572:	f0 91 c6 23 	lds	r31, 0x23C6	; 0x8023c6 <adca_callback+0x1>
     576:	68 e0       	ldi	r22, 0x08	; 8
     578:	80 e0       	ldi	r24, 0x00	; 0
     57a:	92 e0       	ldi	r25, 0x02	; 2
     57c:	19 95       	eicall
     57e:	ff 91       	pop	r31
     580:	ef 91       	pop	r30
     582:	bf 91       	pop	r27
     584:	af 91       	pop	r26
     586:	9f 91       	pop	r25
     588:	8f 91       	pop	r24
     58a:	7f 91       	pop	r23
     58c:	6f 91       	pop	r22
     58e:	5f 91       	pop	r21
     590:	4f 91       	pop	r20
     592:	3f 91       	pop	r19
     594:	2f 91       	pop	r18
     596:	0f 90       	pop	r0
     598:	0b be       	out	0x3b, r0	; 59
     59a:	0f 90       	pop	r0
     59c:	09 be       	out	0x39, r0	; 57
     59e:	0f 90       	pop	r0
     5a0:	08 be       	out	0x38, r0	; 56
     5a2:	0f 90       	pop	r0
     5a4:	0f be       	out	0x3f, r0	; 63
     5a6:	0f 90       	pop	r0
     5a8:	1f 90       	pop	r1
     5aa:	18 95       	reti

000005ac <__vector_39>:
     5ac:	1f 92       	push	r1
     5ae:	0f 92       	push	r0
     5b0:	0f b6       	in	r0, 0x3f	; 63
     5b2:	0f 92       	push	r0
     5b4:	11 24       	eor	r1, r1
     5b6:	08 b6       	in	r0, 0x38	; 56
     5b8:	0f 92       	push	r0
     5ba:	18 be       	out	0x38, r1	; 56
     5bc:	09 b6       	in	r0, 0x39	; 57
     5be:	0f 92       	push	r0
     5c0:	19 be       	out	0x39, r1	; 57
     5c2:	0b b6       	in	r0, 0x3b	; 59
     5c4:	0f 92       	push	r0
     5c6:	1b be       	out	0x3b, r1	; 59
     5c8:	2f 93       	push	r18
     5ca:	3f 93       	push	r19
     5cc:	4f 93       	push	r20
     5ce:	5f 93       	push	r21
     5d0:	6f 93       	push	r22
     5d2:	7f 93       	push	r23
     5d4:	8f 93       	push	r24
     5d6:	9f 93       	push	r25
     5d8:	af 93       	push	r26
     5da:	bf 93       	push	r27
     5dc:	ef 93       	push	r30
     5de:	ff 93       	push	r31
     5e0:	40 91 64 02 	lds	r20, 0x0264	; 0x800264 <__TEXT_REGION_LENGTH__+0x700264>
     5e4:	50 91 65 02 	lds	r21, 0x0265	; 0x800265 <__TEXT_REGION_LENGTH__+0x700265>
     5e8:	e0 91 c3 23 	lds	r30, 0x23C3	; 0x8023c3 <adcb_callback>
     5ec:	f0 91 c4 23 	lds	r31, 0x23C4	; 0x8023c4 <adcb_callback+0x1>
     5f0:	61 e0       	ldi	r22, 0x01	; 1
     5f2:	80 e4       	ldi	r24, 0x40	; 64
     5f4:	92 e0       	ldi	r25, 0x02	; 2
     5f6:	19 95       	eicall
     5f8:	ff 91       	pop	r31
     5fa:	ef 91       	pop	r30
     5fc:	bf 91       	pop	r27
     5fe:	af 91       	pop	r26
     600:	9f 91       	pop	r25
     602:	8f 91       	pop	r24
     604:	7f 91       	pop	r23
     606:	6f 91       	pop	r22
     608:	5f 91       	pop	r21
     60a:	4f 91       	pop	r20
     60c:	3f 91       	pop	r19
     60e:	2f 91       	pop	r18
     610:	0f 90       	pop	r0
     612:	0b be       	out	0x3b, r0	; 59
     614:	0f 90       	pop	r0
     616:	09 be       	out	0x39, r0	; 57
     618:	0f 90       	pop	r0
     61a:	08 be       	out	0x38, r0	; 56
     61c:	0f 90       	pop	r0
     61e:	0f be       	out	0x3f, r0	; 63
     620:	0f 90       	pop	r0
     622:	1f 90       	pop	r1
     624:	18 95       	reti

00000626 <__vector_40>:
     626:	1f 92       	push	r1
     628:	0f 92       	push	r0
     62a:	0f b6       	in	r0, 0x3f	; 63
     62c:	0f 92       	push	r0
     62e:	11 24       	eor	r1, r1
     630:	08 b6       	in	r0, 0x38	; 56
     632:	0f 92       	push	r0
     634:	18 be       	out	0x38, r1	; 56
     636:	09 b6       	in	r0, 0x39	; 57
     638:	0f 92       	push	r0
     63a:	19 be       	out	0x39, r1	; 57
     63c:	0b b6       	in	r0, 0x3b	; 59
     63e:	0f 92       	push	r0
     640:	1b be       	out	0x3b, r1	; 59
     642:	2f 93       	push	r18
     644:	3f 93       	push	r19
     646:	4f 93       	push	r20
     648:	5f 93       	push	r21
     64a:	6f 93       	push	r22
     64c:	7f 93       	push	r23
     64e:	8f 93       	push	r24
     650:	9f 93       	push	r25
     652:	af 93       	push	r26
     654:	bf 93       	push	r27
     656:	ef 93       	push	r30
     658:	ff 93       	push	r31
     65a:	40 91 6c 02 	lds	r20, 0x026C	; 0x80026c <__TEXT_REGION_LENGTH__+0x70026c>
     65e:	50 91 6d 02 	lds	r21, 0x026D	; 0x80026d <__TEXT_REGION_LENGTH__+0x70026d>
     662:	e0 91 c3 23 	lds	r30, 0x23C3	; 0x8023c3 <adcb_callback>
     666:	f0 91 c4 23 	lds	r31, 0x23C4	; 0x8023c4 <adcb_callback+0x1>
     66a:	62 e0       	ldi	r22, 0x02	; 2
     66c:	80 e4       	ldi	r24, 0x40	; 64
     66e:	92 e0       	ldi	r25, 0x02	; 2
     670:	19 95       	eicall
     672:	ff 91       	pop	r31
     674:	ef 91       	pop	r30
     676:	bf 91       	pop	r27
     678:	af 91       	pop	r26
     67a:	9f 91       	pop	r25
     67c:	8f 91       	pop	r24
     67e:	7f 91       	pop	r23
     680:	6f 91       	pop	r22
     682:	5f 91       	pop	r21
     684:	4f 91       	pop	r20
     686:	3f 91       	pop	r19
     688:	2f 91       	pop	r18
     68a:	0f 90       	pop	r0
     68c:	0b be       	out	0x3b, r0	; 59
     68e:	0f 90       	pop	r0
     690:	09 be       	out	0x39, r0	; 57
     692:	0f 90       	pop	r0
     694:	08 be       	out	0x38, r0	; 56
     696:	0f 90       	pop	r0
     698:	0f be       	out	0x3f, r0	; 63
     69a:	0f 90       	pop	r0
     69c:	1f 90       	pop	r1
     69e:	18 95       	reti

000006a0 <__vector_41>:
     6a0:	1f 92       	push	r1
     6a2:	0f 92       	push	r0
     6a4:	0f b6       	in	r0, 0x3f	; 63
     6a6:	0f 92       	push	r0
     6a8:	11 24       	eor	r1, r1
     6aa:	08 b6       	in	r0, 0x38	; 56
     6ac:	0f 92       	push	r0
     6ae:	18 be       	out	0x38, r1	; 56
     6b0:	09 b6       	in	r0, 0x39	; 57
     6b2:	0f 92       	push	r0
     6b4:	19 be       	out	0x39, r1	; 57
     6b6:	0b b6       	in	r0, 0x3b	; 59
     6b8:	0f 92       	push	r0
     6ba:	1b be       	out	0x3b, r1	; 59
     6bc:	2f 93       	push	r18
     6be:	3f 93       	push	r19
     6c0:	4f 93       	push	r20
     6c2:	5f 93       	push	r21
     6c4:	6f 93       	push	r22
     6c6:	7f 93       	push	r23
     6c8:	8f 93       	push	r24
     6ca:	9f 93       	push	r25
     6cc:	af 93       	push	r26
     6ce:	bf 93       	push	r27
     6d0:	ef 93       	push	r30
     6d2:	ff 93       	push	r31
     6d4:	40 91 74 02 	lds	r20, 0x0274	; 0x800274 <__TEXT_REGION_LENGTH__+0x700274>
     6d8:	50 91 75 02 	lds	r21, 0x0275	; 0x800275 <__TEXT_REGION_LENGTH__+0x700275>
     6dc:	e0 91 c3 23 	lds	r30, 0x23C3	; 0x8023c3 <adcb_callback>
     6e0:	f0 91 c4 23 	lds	r31, 0x23C4	; 0x8023c4 <adcb_callback+0x1>
     6e4:	64 e0       	ldi	r22, 0x04	; 4
     6e6:	80 e4       	ldi	r24, 0x40	; 64
     6e8:	92 e0       	ldi	r25, 0x02	; 2
     6ea:	19 95       	eicall
     6ec:	ff 91       	pop	r31
     6ee:	ef 91       	pop	r30
     6f0:	bf 91       	pop	r27
     6f2:	af 91       	pop	r26
     6f4:	9f 91       	pop	r25
     6f6:	8f 91       	pop	r24
     6f8:	7f 91       	pop	r23
     6fa:	6f 91       	pop	r22
     6fc:	5f 91       	pop	r21
     6fe:	4f 91       	pop	r20
     700:	3f 91       	pop	r19
     702:	2f 91       	pop	r18
     704:	0f 90       	pop	r0
     706:	0b be       	out	0x3b, r0	; 59
     708:	0f 90       	pop	r0
     70a:	09 be       	out	0x39, r0	; 57
     70c:	0f 90       	pop	r0
     70e:	08 be       	out	0x38, r0	; 56
     710:	0f 90       	pop	r0
     712:	0f be       	out	0x3f, r0	; 63
     714:	0f 90       	pop	r0
     716:	1f 90       	pop	r1
     718:	18 95       	reti

0000071a <__vector_42>:
     71a:	1f 92       	push	r1
     71c:	0f 92       	push	r0
     71e:	0f b6       	in	r0, 0x3f	; 63
     720:	0f 92       	push	r0
     722:	11 24       	eor	r1, r1
     724:	08 b6       	in	r0, 0x38	; 56
     726:	0f 92       	push	r0
     728:	18 be       	out	0x38, r1	; 56
     72a:	09 b6       	in	r0, 0x39	; 57
     72c:	0f 92       	push	r0
     72e:	19 be       	out	0x39, r1	; 57
     730:	0b b6       	in	r0, 0x3b	; 59
     732:	0f 92       	push	r0
     734:	1b be       	out	0x3b, r1	; 59
     736:	2f 93       	push	r18
     738:	3f 93       	push	r19
     73a:	4f 93       	push	r20
     73c:	5f 93       	push	r21
     73e:	6f 93       	push	r22
     740:	7f 93       	push	r23
     742:	8f 93       	push	r24
     744:	9f 93       	push	r25
     746:	af 93       	push	r26
     748:	bf 93       	push	r27
     74a:	ef 93       	push	r30
     74c:	ff 93       	push	r31
     74e:	40 91 7c 02 	lds	r20, 0x027C	; 0x80027c <__TEXT_REGION_LENGTH__+0x70027c>
     752:	50 91 7d 02 	lds	r21, 0x027D	; 0x80027d <__TEXT_REGION_LENGTH__+0x70027d>
     756:	e0 91 c3 23 	lds	r30, 0x23C3	; 0x8023c3 <adcb_callback>
     75a:	f0 91 c4 23 	lds	r31, 0x23C4	; 0x8023c4 <adcb_callback+0x1>
     75e:	68 e0       	ldi	r22, 0x08	; 8
     760:	80 e4       	ldi	r24, 0x40	; 64
     762:	92 e0       	ldi	r25, 0x02	; 2
     764:	19 95       	eicall
     766:	ff 91       	pop	r31
     768:	ef 91       	pop	r30
     76a:	bf 91       	pop	r27
     76c:	af 91       	pop	r26
     76e:	9f 91       	pop	r25
     770:	8f 91       	pop	r24
     772:	7f 91       	pop	r23
     774:	6f 91       	pop	r22
     776:	5f 91       	pop	r21
     778:	4f 91       	pop	r20
     77a:	3f 91       	pop	r19
     77c:	2f 91       	pop	r18
     77e:	0f 90       	pop	r0
     780:	0b be       	out	0x3b, r0	; 59
     782:	0f 90       	pop	r0
     784:	09 be       	out	0x39, r0	; 57
     786:	0f 90       	pop	r0
     788:	08 be       	out	0x38, r0	; 56
     78a:	0f 90       	pop	r0
     78c:	0f be       	out	0x3f, r0	; 63
     78e:	0f 90       	pop	r0
     790:	1f 90       	pop	r1
     792:	18 95       	reti

00000794 <adc_write_configuration>:
     794:	df 92       	push	r13
     796:	ef 92       	push	r14
     798:	ff 92       	push	r15
     79a:	0f 93       	push	r16
     79c:	1f 93       	push	r17
     79e:	cf 93       	push	r28
     7a0:	df 93       	push	r29
     7a2:	7c 01       	movw	r14, r24
     7a4:	8b 01       	movw	r16, r22
     7a6:	e1 14       	cp	r14, r1
     7a8:	82 e0       	ldi	r24, 0x02	; 2
     7aa:	f8 06       	cpc	r15, r24
     7ac:	51 f4       	brne	.+20     	; 0x7c2 <adc_write_configuration+0x2e>
     7ae:	61 e2       	ldi	r22, 0x21	; 33
     7b0:	70 e0       	ldi	r23, 0x00	; 0
     7b2:	82 e0       	ldi	r24, 0x02	; 2
     7b4:	0e 94 b4 10 	call	0x2168	; 0x2168 <nvm_read_byte>
     7b8:	c8 2f       	mov	r28, r24
     7ba:	d0 e0       	ldi	r29, 0x00	; 0
     7bc:	60 e2       	ldi	r22, 0x20	; 32
     7be:	70 e0       	ldi	r23, 0x00	; 0
     7c0:	0e c0       	rjmp	.+28     	; 0x7de <adc_write_configuration+0x4a>
     7c2:	e0 e4       	ldi	r30, 0x40	; 64
     7c4:	ee 16       	cp	r14, r30
     7c6:	e2 e0       	ldi	r30, 0x02	; 2
     7c8:	fe 06       	cpc	r15, r30
     7ca:	c1 f5       	brne	.+112    	; 0x83c <adc_write_configuration+0xa8>
     7cc:	65 e2       	ldi	r22, 0x25	; 37
     7ce:	70 e0       	ldi	r23, 0x00	; 0
     7d0:	82 e0       	ldi	r24, 0x02	; 2
     7d2:	0e 94 b4 10 	call	0x2168	; 0x2168 <nvm_read_byte>
     7d6:	c8 2f       	mov	r28, r24
     7d8:	d0 e0       	ldi	r29, 0x00	; 0
     7da:	64 e2       	ldi	r22, 0x24	; 36
     7dc:	70 e0       	ldi	r23, 0x00	; 0
     7de:	82 e0       	ldi	r24, 0x02	; 2
     7e0:	0e 94 b4 10 	call	0x2168	; 0x2168 <nvm_read_byte>
     7e4:	dc 2f       	mov	r29, r28
     7e6:	cc 27       	eor	r28, r28
     7e8:	c8 2b       	or	r28, r24
     7ea:	df dd       	rcall	.-1090   	; 0x3aa <cpu_irq_save>
     7ec:	d8 2e       	mov	r13, r24
     7ee:	c7 01       	movw	r24, r14
     7f0:	84 dd       	rcall	.-1272   	; 0x2fa <adc_enable_clock>
     7f2:	f7 01       	movw	r30, r14
     7f4:	80 81       	ld	r24, Z
     7f6:	92 e0       	ldi	r25, 0x02	; 2
     7f8:	90 83       	st	Z, r25
     7fa:	c4 87       	std	Z+12, r28	; 0x0c
     7fc:	d5 87       	std	Z+13, r29	; 0x0d
     7fe:	f8 01       	movw	r30, r16
     800:	25 81       	ldd	r18, Z+5	; 0x05
     802:	36 81       	ldd	r19, Z+6	; 0x06
     804:	f7 01       	movw	r30, r14
     806:	20 8f       	std	Z+24, r18	; 0x18
     808:	31 8f       	std	Z+25, r19	; 0x19
     80a:	f8 01       	movw	r30, r16
     80c:	92 81       	ldd	r25, Z+2	; 0x02
     80e:	f7 01       	movw	r30, r14
     810:	92 83       	std	Z+2, r25	; 0x02
     812:	f8 01       	movw	r30, r16
     814:	94 81       	ldd	r25, Z+4	; 0x04
     816:	f7 01       	movw	r30, r14
     818:	94 83       	std	Z+4, r25	; 0x04
     81a:	f8 01       	movw	r30, r16
     81c:	93 81       	ldd	r25, Z+3	; 0x03
     81e:	f7 01       	movw	r30, r14
     820:	93 83       	std	Z+3, r25	; 0x03
     822:	f8 01       	movw	r30, r16
     824:	91 81       	ldd	r25, Z+1	; 0x01
     826:	f7 01       	movw	r30, r14
     828:	91 83       	std	Z+1, r25	; 0x01
     82a:	81 70       	andi	r24, 0x01	; 1
     82c:	f8 01       	movw	r30, r16
     82e:	90 81       	ld	r25, Z
     830:	89 2b       	or	r24, r25
     832:	f7 01       	movw	r30, r14
     834:	80 83       	st	Z, r24
     836:	c7 01       	movw	r24, r14
     838:	7f dd       	rcall	.-1282   	; 0x338 <adc_disable_clock>
     83a:	df be       	out	0x3f, r13	; 63
     83c:	df 91       	pop	r29
     83e:	cf 91       	pop	r28
     840:	1f 91       	pop	r17
     842:	0f 91       	pop	r16
     844:	ff 90       	pop	r15
     846:	ef 90       	pop	r14
     848:	df 90       	pop	r13
     84a:	08 95       	ret

0000084c <adc_read_configuration>:
     84c:	ff 92       	push	r15
     84e:	0f 93       	push	r16
     850:	1f 93       	push	r17
     852:	cf 93       	push	r28
     854:	df 93       	push	r29
     856:	ec 01       	movw	r28, r24
     858:	8b 01       	movw	r16, r22
     85a:	a7 dd       	rcall	.-1202   	; 0x3aa <cpu_irq_save>
     85c:	f8 2e       	mov	r15, r24
     85e:	ce 01       	movw	r24, r28
     860:	4c dd       	rcall	.-1384   	; 0x2fa <adc_enable_clock>
     862:	88 81       	ld	r24, Y
     864:	80 7c       	andi	r24, 0xC0	; 192
     866:	f8 01       	movw	r30, r16
     868:	80 83       	st	Z, r24
     86a:	88 8d       	ldd	r24, Y+24	; 0x18
     86c:	99 8d       	ldd	r25, Y+25	; 0x19
     86e:	85 83       	std	Z+5, r24	; 0x05
     870:	96 83       	std	Z+6, r25	; 0x06
     872:	8a 81       	ldd	r24, Y+2	; 0x02
     874:	82 83       	std	Z+2, r24	; 0x02
     876:	8c 81       	ldd	r24, Y+4	; 0x04
     878:	84 83       	std	Z+4, r24	; 0x04
     87a:	8b 81       	ldd	r24, Y+3	; 0x03
     87c:	83 83       	std	Z+3, r24	; 0x03
     87e:	89 81       	ldd	r24, Y+1	; 0x01
     880:	81 83       	std	Z+1, r24	; 0x01
     882:	ce 01       	movw	r24, r28
     884:	59 dd       	rcall	.-1358   	; 0x338 <adc_disable_clock>
     886:	ff be       	out	0x3f, r15	; 63
     888:	df 91       	pop	r29
     88a:	cf 91       	pop	r28
     88c:	1f 91       	pop	r17
     88e:	0f 91       	pop	r16
     890:	ff 90       	pop	r15
     892:	08 95       	ret

00000894 <adcch_write_configuration>:
     894:	cf 92       	push	r12
     896:	df 92       	push	r13
     898:	ef 92       	push	r14
     89a:	ff 92       	push	r15
     89c:	0f 93       	push	r16
     89e:	1f 93       	push	r17
     8a0:	cf 93       	push	r28
     8a2:	df 93       	push	r29
     8a4:	6c 01       	movw	r12, r24
     8a6:	f6 2e       	mov	r15, r22
     8a8:	8a 01       	movw	r16, r20
     8aa:	86 2f       	mov	r24, r22
     8ac:	83 70       	andi	r24, 0x03	; 3
     8ae:	96 2f       	mov	r25, r22
     8b0:	21 f4       	brne	.+8      	; 0x8ba <adcch_write_configuration+0x26>
     8b2:	96 95       	lsr	r25
     8b4:	96 95       	lsr	r25
     8b6:	82 e0       	ldi	r24, 0x02	; 2
     8b8:	01 c0       	rjmp	.+2      	; 0x8bc <adcch_write_configuration+0x28>
     8ba:	80 e0       	ldi	r24, 0x00	; 0
     8bc:	90 ff       	sbrs	r25, 0
     8be:	8f 5f       	subi	r24, 0xFF	; 255
     8c0:	e6 01       	movw	r28, r12
     8c2:	a0 96       	adiw	r28, 0x20	; 32
     8c4:	98 e0       	ldi	r25, 0x08	; 8
     8c6:	89 9f       	mul	r24, r25
     8c8:	c0 0d       	add	r28, r0
     8ca:	d1 1d       	adc	r29, r1
     8cc:	11 24       	eor	r1, r1
     8ce:	6d dd       	rcall	.-1318   	; 0x3aa <cpu_irq_save>
     8d0:	e8 2e       	mov	r14, r24
     8d2:	c6 01       	movw	r24, r12
     8d4:	12 dd       	rcall	.-1500   	; 0x2fa <adc_enable_clock>
     8d6:	f8 01       	movw	r30, r16
     8d8:	80 81       	ld	r24, Z
     8da:	88 83       	st	Y, r24
     8dc:	82 81       	ldd	r24, Z+2	; 0x02
     8de:	8a 83       	std	Y+2, r24	; 0x02
     8e0:	81 81       	ldd	r24, Z+1	; 0x01
     8e2:	89 83       	std	Y+1, r24	; 0x01
     8e4:	f0 fe       	sbrs	r15, 0
     8e6:	02 c0       	rjmp	.+4      	; 0x8ec <adcch_write_configuration+0x58>
     8e8:	83 81       	ldd	r24, Z+3	; 0x03
     8ea:	8e 83       	std	Y+6, r24	; 0x06
     8ec:	c6 01       	movw	r24, r12
     8ee:	24 dd       	rcall	.-1464   	; 0x338 <adc_disable_clock>
     8f0:	ef be       	out	0x3f, r14	; 63
     8f2:	df 91       	pop	r29
     8f4:	cf 91       	pop	r28
     8f6:	1f 91       	pop	r17
     8f8:	0f 91       	pop	r16
     8fa:	ff 90       	pop	r15
     8fc:	ef 90       	pop	r14
     8fe:	df 90       	pop	r13
     900:	cf 90       	pop	r12
     902:	08 95       	ret

00000904 <adcch_read_configuration>:
     904:	cf 92       	push	r12
     906:	df 92       	push	r13
     908:	ef 92       	push	r14
     90a:	ff 92       	push	r15
     90c:	0f 93       	push	r16
     90e:	1f 93       	push	r17
     910:	cf 93       	push	r28
     912:	df 93       	push	r29
     914:	6c 01       	movw	r12, r24
     916:	f6 2e       	mov	r15, r22
     918:	8a 01       	movw	r16, r20
     91a:	86 2f       	mov	r24, r22
     91c:	83 70       	andi	r24, 0x03	; 3
     91e:	96 2f       	mov	r25, r22
     920:	21 f4       	brne	.+8      	; 0x92a <adcch_read_configuration+0x26>
     922:	96 95       	lsr	r25
     924:	96 95       	lsr	r25
     926:	82 e0       	ldi	r24, 0x02	; 2
     928:	01 c0       	rjmp	.+2      	; 0x92c <adcch_read_configuration+0x28>
     92a:	80 e0       	ldi	r24, 0x00	; 0
     92c:	90 ff       	sbrs	r25, 0
     92e:	8f 5f       	subi	r24, 0xFF	; 255
     930:	e6 01       	movw	r28, r12
     932:	a0 96       	adiw	r28, 0x20	; 32
     934:	98 e0       	ldi	r25, 0x08	; 8
     936:	89 9f       	mul	r24, r25
     938:	c0 0d       	add	r28, r0
     93a:	d1 1d       	adc	r29, r1
     93c:	11 24       	eor	r1, r1
     93e:	35 dd       	rcall	.-1430   	; 0x3aa <cpu_irq_save>
     940:	e8 2e       	mov	r14, r24
     942:	c6 01       	movw	r24, r12
     944:	da dc       	rcall	.-1612   	; 0x2fa <adc_enable_clock>
     946:	88 81       	ld	r24, Y
     948:	f8 01       	movw	r30, r16
     94a:	80 83       	st	Z, r24
     94c:	8a 81       	ldd	r24, Y+2	; 0x02
     94e:	82 83       	std	Z+2, r24	; 0x02
     950:	89 81       	ldd	r24, Y+1	; 0x01
     952:	81 83       	std	Z+1, r24	; 0x01
     954:	f0 fe       	sbrs	r15, 0
     956:	02 c0       	rjmp	.+4      	; 0x95c <adcch_read_configuration+0x58>
     958:	8e 81       	ldd	r24, Y+6	; 0x06
     95a:	83 83       	std	Z+3, r24	; 0x03
     95c:	c6 01       	movw	r24, r12
     95e:	ec dc       	rcall	.-1576   	; 0x338 <adc_disable_clock>
     960:	ef be       	out	0x3f, r14	; 63
     962:	df 91       	pop	r29
     964:	cf 91       	pop	r28
     966:	1f 91       	pop	r17
     968:	0f 91       	pop	r16
     96a:	ff 90       	pop	r15
     96c:	ef 90       	pop	r14
     96e:	df 90       	pop	r13
     970:	cf 90       	pop	r12
     972:	08 95       	ret

00000974 <__vector_15>:
     974:	1f 92       	push	r1
     976:	0f 92       	push	r0
     978:	0f b6       	in	r0, 0x3f	; 63
     97a:	0f 92       	push	r0
     97c:	11 24       	eor	r1, r1
     97e:	08 b6       	in	r0, 0x38	; 56
     980:	0f 92       	push	r0
     982:	18 be       	out	0x38, r1	; 56
     984:	09 b6       	in	r0, 0x39	; 57
     986:	0f 92       	push	r0
     988:	19 be       	out	0x39, r1	; 57
     98a:	0b b6       	in	r0, 0x3b	; 59
     98c:	0f 92       	push	r0
     98e:	1b be       	out	0x3b, r1	; 59
     990:	2f 93       	push	r18
     992:	3f 93       	push	r19
     994:	4f 93       	push	r20
     996:	5f 93       	push	r21
     998:	6f 93       	push	r22
     99a:	7f 93       	push	r23
     99c:	8f 93       	push	r24
     99e:	9f 93       	push	r25
     9a0:	af 93       	push	r26
     9a2:	bf 93       	push	r27
     9a4:	ef 93       	push	r30
     9a6:	ff 93       	push	r31
     9a8:	e0 91 32 22 	lds	r30, 0x2232	; 0x802232 <tc_tcc0_err_callback>
     9ac:	f0 91 33 22 	lds	r31, 0x2233	; 0x802233 <tc_tcc0_err_callback+0x1>
     9b0:	30 97       	sbiw	r30, 0x00	; 0
     9b2:	09 f0       	breq	.+2      	; 0x9b6 <__vector_15+0x42>
     9b4:	19 95       	eicall
     9b6:	ff 91       	pop	r31
     9b8:	ef 91       	pop	r30
     9ba:	bf 91       	pop	r27
     9bc:	af 91       	pop	r26
     9be:	9f 91       	pop	r25
     9c0:	8f 91       	pop	r24
     9c2:	7f 91       	pop	r23
     9c4:	6f 91       	pop	r22
     9c6:	5f 91       	pop	r21
     9c8:	4f 91       	pop	r20
     9ca:	3f 91       	pop	r19
     9cc:	2f 91       	pop	r18
     9ce:	0f 90       	pop	r0
     9d0:	0b be       	out	0x3b, r0	; 59
     9d2:	0f 90       	pop	r0
     9d4:	09 be       	out	0x39, r0	; 57
     9d6:	0f 90       	pop	r0
     9d8:	08 be       	out	0x38, r0	; 56
     9da:	0f 90       	pop	r0
     9dc:	0f be       	out	0x3f, r0	; 63
     9de:	0f 90       	pop	r0
     9e0:	1f 90       	pop	r1
     9e2:	18 95       	reti

000009e4 <__vector_16>:
     9e4:	1f 92       	push	r1
     9e6:	0f 92       	push	r0
     9e8:	0f b6       	in	r0, 0x3f	; 63
     9ea:	0f 92       	push	r0
     9ec:	11 24       	eor	r1, r1
     9ee:	08 b6       	in	r0, 0x38	; 56
     9f0:	0f 92       	push	r0
     9f2:	18 be       	out	0x38, r1	; 56
     9f4:	09 b6       	in	r0, 0x39	; 57
     9f6:	0f 92       	push	r0
     9f8:	19 be       	out	0x39, r1	; 57
     9fa:	0b b6       	in	r0, 0x3b	; 59
     9fc:	0f 92       	push	r0
     9fe:	1b be       	out	0x3b, r1	; 59
     a00:	2f 93       	push	r18
     a02:	3f 93       	push	r19
     a04:	4f 93       	push	r20
     a06:	5f 93       	push	r21
     a08:	6f 93       	push	r22
     a0a:	7f 93       	push	r23
     a0c:	8f 93       	push	r24
     a0e:	9f 93       	push	r25
     a10:	af 93       	push	r26
     a12:	bf 93       	push	r27
     a14:	ef 93       	push	r30
     a16:	ff 93       	push	r31
     a18:	e0 91 30 22 	lds	r30, 0x2230	; 0x802230 <tc_tcc0_cca_callback>
     a1c:	f0 91 31 22 	lds	r31, 0x2231	; 0x802231 <tc_tcc0_cca_callback+0x1>
     a20:	30 97       	sbiw	r30, 0x00	; 0
     a22:	09 f0       	breq	.+2      	; 0xa26 <__vector_16+0x42>
     a24:	19 95       	eicall
     a26:	ff 91       	pop	r31
     a28:	ef 91       	pop	r30
     a2a:	bf 91       	pop	r27
     a2c:	af 91       	pop	r26
     a2e:	9f 91       	pop	r25
     a30:	8f 91       	pop	r24
     a32:	7f 91       	pop	r23
     a34:	6f 91       	pop	r22
     a36:	5f 91       	pop	r21
     a38:	4f 91       	pop	r20
     a3a:	3f 91       	pop	r19
     a3c:	2f 91       	pop	r18
     a3e:	0f 90       	pop	r0
     a40:	0b be       	out	0x3b, r0	; 59
     a42:	0f 90       	pop	r0
     a44:	09 be       	out	0x39, r0	; 57
     a46:	0f 90       	pop	r0
     a48:	08 be       	out	0x38, r0	; 56
     a4a:	0f 90       	pop	r0
     a4c:	0f be       	out	0x3f, r0	; 63
     a4e:	0f 90       	pop	r0
     a50:	1f 90       	pop	r1
     a52:	18 95       	reti

00000a54 <__vector_17>:
     a54:	1f 92       	push	r1
     a56:	0f 92       	push	r0
     a58:	0f b6       	in	r0, 0x3f	; 63
     a5a:	0f 92       	push	r0
     a5c:	11 24       	eor	r1, r1
     a5e:	08 b6       	in	r0, 0x38	; 56
     a60:	0f 92       	push	r0
     a62:	18 be       	out	0x38, r1	; 56
     a64:	09 b6       	in	r0, 0x39	; 57
     a66:	0f 92       	push	r0
     a68:	19 be       	out	0x39, r1	; 57
     a6a:	0b b6       	in	r0, 0x3b	; 59
     a6c:	0f 92       	push	r0
     a6e:	1b be       	out	0x3b, r1	; 59
     a70:	2f 93       	push	r18
     a72:	3f 93       	push	r19
     a74:	4f 93       	push	r20
     a76:	5f 93       	push	r21
     a78:	6f 93       	push	r22
     a7a:	7f 93       	push	r23
     a7c:	8f 93       	push	r24
     a7e:	9f 93       	push	r25
     a80:	af 93       	push	r26
     a82:	bf 93       	push	r27
     a84:	ef 93       	push	r30
     a86:	ff 93       	push	r31
     a88:	e0 91 2e 22 	lds	r30, 0x222E	; 0x80222e <tc_tcc0_ccb_callback>
     a8c:	f0 91 2f 22 	lds	r31, 0x222F	; 0x80222f <tc_tcc0_ccb_callback+0x1>
     a90:	30 97       	sbiw	r30, 0x00	; 0
     a92:	09 f0       	breq	.+2      	; 0xa96 <__vector_17+0x42>
     a94:	19 95       	eicall
     a96:	ff 91       	pop	r31
     a98:	ef 91       	pop	r30
     a9a:	bf 91       	pop	r27
     a9c:	af 91       	pop	r26
     a9e:	9f 91       	pop	r25
     aa0:	8f 91       	pop	r24
     aa2:	7f 91       	pop	r23
     aa4:	6f 91       	pop	r22
     aa6:	5f 91       	pop	r21
     aa8:	4f 91       	pop	r20
     aaa:	3f 91       	pop	r19
     aac:	2f 91       	pop	r18
     aae:	0f 90       	pop	r0
     ab0:	0b be       	out	0x3b, r0	; 59
     ab2:	0f 90       	pop	r0
     ab4:	09 be       	out	0x39, r0	; 57
     ab6:	0f 90       	pop	r0
     ab8:	08 be       	out	0x38, r0	; 56
     aba:	0f 90       	pop	r0
     abc:	0f be       	out	0x3f, r0	; 63
     abe:	0f 90       	pop	r0
     ac0:	1f 90       	pop	r1
     ac2:	18 95       	reti

00000ac4 <__vector_18>:
     ac4:	1f 92       	push	r1
     ac6:	0f 92       	push	r0
     ac8:	0f b6       	in	r0, 0x3f	; 63
     aca:	0f 92       	push	r0
     acc:	11 24       	eor	r1, r1
     ace:	08 b6       	in	r0, 0x38	; 56
     ad0:	0f 92       	push	r0
     ad2:	18 be       	out	0x38, r1	; 56
     ad4:	09 b6       	in	r0, 0x39	; 57
     ad6:	0f 92       	push	r0
     ad8:	19 be       	out	0x39, r1	; 57
     ada:	0b b6       	in	r0, 0x3b	; 59
     adc:	0f 92       	push	r0
     ade:	1b be       	out	0x3b, r1	; 59
     ae0:	2f 93       	push	r18
     ae2:	3f 93       	push	r19
     ae4:	4f 93       	push	r20
     ae6:	5f 93       	push	r21
     ae8:	6f 93       	push	r22
     aea:	7f 93       	push	r23
     aec:	8f 93       	push	r24
     aee:	9f 93       	push	r25
     af0:	af 93       	push	r26
     af2:	bf 93       	push	r27
     af4:	ef 93       	push	r30
     af6:	ff 93       	push	r31
     af8:	e0 91 2c 22 	lds	r30, 0x222C	; 0x80222c <tc_tcc0_ccc_callback>
     afc:	f0 91 2d 22 	lds	r31, 0x222D	; 0x80222d <tc_tcc0_ccc_callback+0x1>
     b00:	30 97       	sbiw	r30, 0x00	; 0
     b02:	09 f0       	breq	.+2      	; 0xb06 <__vector_18+0x42>
     b04:	19 95       	eicall
     b06:	ff 91       	pop	r31
     b08:	ef 91       	pop	r30
     b0a:	bf 91       	pop	r27
     b0c:	af 91       	pop	r26
     b0e:	9f 91       	pop	r25
     b10:	8f 91       	pop	r24
     b12:	7f 91       	pop	r23
     b14:	6f 91       	pop	r22
     b16:	5f 91       	pop	r21
     b18:	4f 91       	pop	r20
     b1a:	3f 91       	pop	r19
     b1c:	2f 91       	pop	r18
     b1e:	0f 90       	pop	r0
     b20:	0b be       	out	0x3b, r0	; 59
     b22:	0f 90       	pop	r0
     b24:	09 be       	out	0x39, r0	; 57
     b26:	0f 90       	pop	r0
     b28:	08 be       	out	0x38, r0	; 56
     b2a:	0f 90       	pop	r0
     b2c:	0f be       	out	0x3f, r0	; 63
     b2e:	0f 90       	pop	r0
     b30:	1f 90       	pop	r1
     b32:	18 95       	reti

00000b34 <__vector_19>:
     b34:	1f 92       	push	r1
     b36:	0f 92       	push	r0
     b38:	0f b6       	in	r0, 0x3f	; 63
     b3a:	0f 92       	push	r0
     b3c:	11 24       	eor	r1, r1
     b3e:	08 b6       	in	r0, 0x38	; 56
     b40:	0f 92       	push	r0
     b42:	18 be       	out	0x38, r1	; 56
     b44:	09 b6       	in	r0, 0x39	; 57
     b46:	0f 92       	push	r0
     b48:	19 be       	out	0x39, r1	; 57
     b4a:	0b b6       	in	r0, 0x3b	; 59
     b4c:	0f 92       	push	r0
     b4e:	1b be       	out	0x3b, r1	; 59
     b50:	2f 93       	push	r18
     b52:	3f 93       	push	r19
     b54:	4f 93       	push	r20
     b56:	5f 93       	push	r21
     b58:	6f 93       	push	r22
     b5a:	7f 93       	push	r23
     b5c:	8f 93       	push	r24
     b5e:	9f 93       	push	r25
     b60:	af 93       	push	r26
     b62:	bf 93       	push	r27
     b64:	ef 93       	push	r30
     b66:	ff 93       	push	r31
     b68:	e0 91 2a 22 	lds	r30, 0x222A	; 0x80222a <tc_tcc0_ccd_callback>
     b6c:	f0 91 2b 22 	lds	r31, 0x222B	; 0x80222b <tc_tcc0_ccd_callback+0x1>
     b70:	30 97       	sbiw	r30, 0x00	; 0
     b72:	09 f0       	breq	.+2      	; 0xb76 <__vector_19+0x42>
     b74:	19 95       	eicall
     b76:	ff 91       	pop	r31
     b78:	ef 91       	pop	r30
     b7a:	bf 91       	pop	r27
     b7c:	af 91       	pop	r26
     b7e:	9f 91       	pop	r25
     b80:	8f 91       	pop	r24
     b82:	7f 91       	pop	r23
     b84:	6f 91       	pop	r22
     b86:	5f 91       	pop	r21
     b88:	4f 91       	pop	r20
     b8a:	3f 91       	pop	r19
     b8c:	2f 91       	pop	r18
     b8e:	0f 90       	pop	r0
     b90:	0b be       	out	0x3b, r0	; 59
     b92:	0f 90       	pop	r0
     b94:	09 be       	out	0x39, r0	; 57
     b96:	0f 90       	pop	r0
     b98:	08 be       	out	0x38, r0	; 56
     b9a:	0f 90       	pop	r0
     b9c:	0f be       	out	0x3f, r0	; 63
     b9e:	0f 90       	pop	r0
     ba0:	1f 90       	pop	r1
     ba2:	18 95       	reti

00000ba4 <__vector_20>:
     ba4:	1f 92       	push	r1
     ba6:	0f 92       	push	r0
     ba8:	0f b6       	in	r0, 0x3f	; 63
     baa:	0f 92       	push	r0
     bac:	11 24       	eor	r1, r1
     bae:	08 b6       	in	r0, 0x38	; 56
     bb0:	0f 92       	push	r0
     bb2:	18 be       	out	0x38, r1	; 56
     bb4:	09 b6       	in	r0, 0x39	; 57
     bb6:	0f 92       	push	r0
     bb8:	19 be       	out	0x39, r1	; 57
     bba:	0b b6       	in	r0, 0x3b	; 59
     bbc:	0f 92       	push	r0
     bbe:	1b be       	out	0x3b, r1	; 59
     bc0:	2f 93       	push	r18
     bc2:	3f 93       	push	r19
     bc4:	4f 93       	push	r20
     bc6:	5f 93       	push	r21
     bc8:	6f 93       	push	r22
     bca:	7f 93       	push	r23
     bcc:	8f 93       	push	r24
     bce:	9f 93       	push	r25
     bd0:	af 93       	push	r26
     bd2:	bf 93       	push	r27
     bd4:	ef 93       	push	r30
     bd6:	ff 93       	push	r31
     bd8:	e0 91 28 22 	lds	r30, 0x2228	; 0x802228 <tc_tcc1_ovf_callback>
     bdc:	f0 91 29 22 	lds	r31, 0x2229	; 0x802229 <tc_tcc1_ovf_callback+0x1>
     be0:	30 97       	sbiw	r30, 0x00	; 0
     be2:	09 f0       	breq	.+2      	; 0xbe6 <__vector_20+0x42>
     be4:	19 95       	eicall
     be6:	ff 91       	pop	r31
     be8:	ef 91       	pop	r30
     bea:	bf 91       	pop	r27
     bec:	af 91       	pop	r26
     bee:	9f 91       	pop	r25
     bf0:	8f 91       	pop	r24
     bf2:	7f 91       	pop	r23
     bf4:	6f 91       	pop	r22
     bf6:	5f 91       	pop	r21
     bf8:	4f 91       	pop	r20
     bfa:	3f 91       	pop	r19
     bfc:	2f 91       	pop	r18
     bfe:	0f 90       	pop	r0
     c00:	0b be       	out	0x3b, r0	; 59
     c02:	0f 90       	pop	r0
     c04:	09 be       	out	0x39, r0	; 57
     c06:	0f 90       	pop	r0
     c08:	08 be       	out	0x38, r0	; 56
     c0a:	0f 90       	pop	r0
     c0c:	0f be       	out	0x3f, r0	; 63
     c0e:	0f 90       	pop	r0
     c10:	1f 90       	pop	r1
     c12:	18 95       	reti

00000c14 <__vector_21>:
     c14:	1f 92       	push	r1
     c16:	0f 92       	push	r0
     c18:	0f b6       	in	r0, 0x3f	; 63
     c1a:	0f 92       	push	r0
     c1c:	11 24       	eor	r1, r1
     c1e:	08 b6       	in	r0, 0x38	; 56
     c20:	0f 92       	push	r0
     c22:	18 be       	out	0x38, r1	; 56
     c24:	09 b6       	in	r0, 0x39	; 57
     c26:	0f 92       	push	r0
     c28:	19 be       	out	0x39, r1	; 57
     c2a:	0b b6       	in	r0, 0x3b	; 59
     c2c:	0f 92       	push	r0
     c2e:	1b be       	out	0x3b, r1	; 59
     c30:	2f 93       	push	r18
     c32:	3f 93       	push	r19
     c34:	4f 93       	push	r20
     c36:	5f 93       	push	r21
     c38:	6f 93       	push	r22
     c3a:	7f 93       	push	r23
     c3c:	8f 93       	push	r24
     c3e:	9f 93       	push	r25
     c40:	af 93       	push	r26
     c42:	bf 93       	push	r27
     c44:	ef 93       	push	r30
     c46:	ff 93       	push	r31
     c48:	e0 91 26 22 	lds	r30, 0x2226	; 0x802226 <tc_tcc1_err_callback>
     c4c:	f0 91 27 22 	lds	r31, 0x2227	; 0x802227 <tc_tcc1_err_callback+0x1>
     c50:	30 97       	sbiw	r30, 0x00	; 0
     c52:	09 f0       	breq	.+2      	; 0xc56 <__vector_21+0x42>
     c54:	19 95       	eicall
     c56:	ff 91       	pop	r31
     c58:	ef 91       	pop	r30
     c5a:	bf 91       	pop	r27
     c5c:	af 91       	pop	r26
     c5e:	9f 91       	pop	r25
     c60:	8f 91       	pop	r24
     c62:	7f 91       	pop	r23
     c64:	6f 91       	pop	r22
     c66:	5f 91       	pop	r21
     c68:	4f 91       	pop	r20
     c6a:	3f 91       	pop	r19
     c6c:	2f 91       	pop	r18
     c6e:	0f 90       	pop	r0
     c70:	0b be       	out	0x3b, r0	; 59
     c72:	0f 90       	pop	r0
     c74:	09 be       	out	0x39, r0	; 57
     c76:	0f 90       	pop	r0
     c78:	08 be       	out	0x38, r0	; 56
     c7a:	0f 90       	pop	r0
     c7c:	0f be       	out	0x3f, r0	; 63
     c7e:	0f 90       	pop	r0
     c80:	1f 90       	pop	r1
     c82:	18 95       	reti

00000c84 <__vector_22>:
     c84:	1f 92       	push	r1
     c86:	0f 92       	push	r0
     c88:	0f b6       	in	r0, 0x3f	; 63
     c8a:	0f 92       	push	r0
     c8c:	11 24       	eor	r1, r1
     c8e:	08 b6       	in	r0, 0x38	; 56
     c90:	0f 92       	push	r0
     c92:	18 be       	out	0x38, r1	; 56
     c94:	09 b6       	in	r0, 0x39	; 57
     c96:	0f 92       	push	r0
     c98:	19 be       	out	0x39, r1	; 57
     c9a:	0b b6       	in	r0, 0x3b	; 59
     c9c:	0f 92       	push	r0
     c9e:	1b be       	out	0x3b, r1	; 59
     ca0:	2f 93       	push	r18
     ca2:	3f 93       	push	r19
     ca4:	4f 93       	push	r20
     ca6:	5f 93       	push	r21
     ca8:	6f 93       	push	r22
     caa:	7f 93       	push	r23
     cac:	8f 93       	push	r24
     cae:	9f 93       	push	r25
     cb0:	af 93       	push	r26
     cb2:	bf 93       	push	r27
     cb4:	ef 93       	push	r30
     cb6:	ff 93       	push	r31
     cb8:	e0 91 24 22 	lds	r30, 0x2224	; 0x802224 <tc_tcc1_cca_callback>
     cbc:	f0 91 25 22 	lds	r31, 0x2225	; 0x802225 <tc_tcc1_cca_callback+0x1>
     cc0:	30 97       	sbiw	r30, 0x00	; 0
     cc2:	09 f0       	breq	.+2      	; 0xcc6 <__vector_22+0x42>
     cc4:	19 95       	eicall
     cc6:	ff 91       	pop	r31
     cc8:	ef 91       	pop	r30
     cca:	bf 91       	pop	r27
     ccc:	af 91       	pop	r26
     cce:	9f 91       	pop	r25
     cd0:	8f 91       	pop	r24
     cd2:	7f 91       	pop	r23
     cd4:	6f 91       	pop	r22
     cd6:	5f 91       	pop	r21
     cd8:	4f 91       	pop	r20
     cda:	3f 91       	pop	r19
     cdc:	2f 91       	pop	r18
     cde:	0f 90       	pop	r0
     ce0:	0b be       	out	0x3b, r0	; 59
     ce2:	0f 90       	pop	r0
     ce4:	09 be       	out	0x39, r0	; 57
     ce6:	0f 90       	pop	r0
     ce8:	08 be       	out	0x38, r0	; 56
     cea:	0f 90       	pop	r0
     cec:	0f be       	out	0x3f, r0	; 63
     cee:	0f 90       	pop	r0
     cf0:	1f 90       	pop	r1
     cf2:	18 95       	reti

00000cf4 <__vector_23>:
     cf4:	1f 92       	push	r1
     cf6:	0f 92       	push	r0
     cf8:	0f b6       	in	r0, 0x3f	; 63
     cfa:	0f 92       	push	r0
     cfc:	11 24       	eor	r1, r1
     cfe:	08 b6       	in	r0, 0x38	; 56
     d00:	0f 92       	push	r0
     d02:	18 be       	out	0x38, r1	; 56
     d04:	09 b6       	in	r0, 0x39	; 57
     d06:	0f 92       	push	r0
     d08:	19 be       	out	0x39, r1	; 57
     d0a:	0b b6       	in	r0, 0x3b	; 59
     d0c:	0f 92       	push	r0
     d0e:	1b be       	out	0x3b, r1	; 59
     d10:	2f 93       	push	r18
     d12:	3f 93       	push	r19
     d14:	4f 93       	push	r20
     d16:	5f 93       	push	r21
     d18:	6f 93       	push	r22
     d1a:	7f 93       	push	r23
     d1c:	8f 93       	push	r24
     d1e:	9f 93       	push	r25
     d20:	af 93       	push	r26
     d22:	bf 93       	push	r27
     d24:	ef 93       	push	r30
     d26:	ff 93       	push	r31
     d28:	e0 91 22 22 	lds	r30, 0x2222	; 0x802222 <tc_tcc1_ccb_callback>
     d2c:	f0 91 23 22 	lds	r31, 0x2223	; 0x802223 <tc_tcc1_ccb_callback+0x1>
     d30:	30 97       	sbiw	r30, 0x00	; 0
     d32:	09 f0       	breq	.+2      	; 0xd36 <__vector_23+0x42>
     d34:	19 95       	eicall
     d36:	ff 91       	pop	r31
     d38:	ef 91       	pop	r30
     d3a:	bf 91       	pop	r27
     d3c:	af 91       	pop	r26
     d3e:	9f 91       	pop	r25
     d40:	8f 91       	pop	r24
     d42:	7f 91       	pop	r23
     d44:	6f 91       	pop	r22
     d46:	5f 91       	pop	r21
     d48:	4f 91       	pop	r20
     d4a:	3f 91       	pop	r19
     d4c:	2f 91       	pop	r18
     d4e:	0f 90       	pop	r0
     d50:	0b be       	out	0x3b, r0	; 59
     d52:	0f 90       	pop	r0
     d54:	09 be       	out	0x39, r0	; 57
     d56:	0f 90       	pop	r0
     d58:	08 be       	out	0x38, r0	; 56
     d5a:	0f 90       	pop	r0
     d5c:	0f be       	out	0x3f, r0	; 63
     d5e:	0f 90       	pop	r0
     d60:	1f 90       	pop	r1
     d62:	18 95       	reti

00000d64 <__vector_77>:
     d64:	1f 92       	push	r1
     d66:	0f 92       	push	r0
     d68:	0f b6       	in	r0, 0x3f	; 63
     d6a:	0f 92       	push	r0
     d6c:	11 24       	eor	r1, r1
     d6e:	08 b6       	in	r0, 0x38	; 56
     d70:	0f 92       	push	r0
     d72:	18 be       	out	0x38, r1	; 56
     d74:	09 b6       	in	r0, 0x39	; 57
     d76:	0f 92       	push	r0
     d78:	19 be       	out	0x39, r1	; 57
     d7a:	0b b6       	in	r0, 0x3b	; 59
     d7c:	0f 92       	push	r0
     d7e:	1b be       	out	0x3b, r1	; 59
     d80:	2f 93       	push	r18
     d82:	3f 93       	push	r19
     d84:	4f 93       	push	r20
     d86:	5f 93       	push	r21
     d88:	6f 93       	push	r22
     d8a:	7f 93       	push	r23
     d8c:	8f 93       	push	r24
     d8e:	9f 93       	push	r25
     d90:	af 93       	push	r26
     d92:	bf 93       	push	r27
     d94:	ef 93       	push	r30
     d96:	ff 93       	push	r31
     d98:	e0 91 20 22 	lds	r30, 0x2220	; 0x802220 <tc_tcd0_ovf_callback>
     d9c:	f0 91 21 22 	lds	r31, 0x2221	; 0x802221 <tc_tcd0_ovf_callback+0x1>
     da0:	30 97       	sbiw	r30, 0x00	; 0
     da2:	09 f0       	breq	.+2      	; 0xda6 <__vector_77+0x42>
     da4:	19 95       	eicall
     da6:	ff 91       	pop	r31
     da8:	ef 91       	pop	r30
     daa:	bf 91       	pop	r27
     dac:	af 91       	pop	r26
     dae:	9f 91       	pop	r25
     db0:	8f 91       	pop	r24
     db2:	7f 91       	pop	r23
     db4:	6f 91       	pop	r22
     db6:	5f 91       	pop	r21
     db8:	4f 91       	pop	r20
     dba:	3f 91       	pop	r19
     dbc:	2f 91       	pop	r18
     dbe:	0f 90       	pop	r0
     dc0:	0b be       	out	0x3b, r0	; 59
     dc2:	0f 90       	pop	r0
     dc4:	09 be       	out	0x39, r0	; 57
     dc6:	0f 90       	pop	r0
     dc8:	08 be       	out	0x38, r0	; 56
     dca:	0f 90       	pop	r0
     dcc:	0f be       	out	0x3f, r0	; 63
     dce:	0f 90       	pop	r0
     dd0:	1f 90       	pop	r1
     dd2:	18 95       	reti

00000dd4 <__vector_78>:
     dd4:	1f 92       	push	r1
     dd6:	0f 92       	push	r0
     dd8:	0f b6       	in	r0, 0x3f	; 63
     dda:	0f 92       	push	r0
     ddc:	11 24       	eor	r1, r1
     dde:	08 b6       	in	r0, 0x38	; 56
     de0:	0f 92       	push	r0
     de2:	18 be       	out	0x38, r1	; 56
     de4:	09 b6       	in	r0, 0x39	; 57
     de6:	0f 92       	push	r0
     de8:	19 be       	out	0x39, r1	; 57
     dea:	0b b6       	in	r0, 0x3b	; 59
     dec:	0f 92       	push	r0
     dee:	1b be       	out	0x3b, r1	; 59
     df0:	2f 93       	push	r18
     df2:	3f 93       	push	r19
     df4:	4f 93       	push	r20
     df6:	5f 93       	push	r21
     df8:	6f 93       	push	r22
     dfa:	7f 93       	push	r23
     dfc:	8f 93       	push	r24
     dfe:	9f 93       	push	r25
     e00:	af 93       	push	r26
     e02:	bf 93       	push	r27
     e04:	ef 93       	push	r30
     e06:	ff 93       	push	r31
     e08:	e0 91 1e 22 	lds	r30, 0x221E	; 0x80221e <tc_tcd0_err_callback>
     e0c:	f0 91 1f 22 	lds	r31, 0x221F	; 0x80221f <tc_tcd0_err_callback+0x1>
     e10:	30 97       	sbiw	r30, 0x00	; 0
     e12:	09 f0       	breq	.+2      	; 0xe16 <__vector_78+0x42>
     e14:	19 95       	eicall
     e16:	ff 91       	pop	r31
     e18:	ef 91       	pop	r30
     e1a:	bf 91       	pop	r27
     e1c:	af 91       	pop	r26
     e1e:	9f 91       	pop	r25
     e20:	8f 91       	pop	r24
     e22:	7f 91       	pop	r23
     e24:	6f 91       	pop	r22
     e26:	5f 91       	pop	r21
     e28:	4f 91       	pop	r20
     e2a:	3f 91       	pop	r19
     e2c:	2f 91       	pop	r18
     e2e:	0f 90       	pop	r0
     e30:	0b be       	out	0x3b, r0	; 59
     e32:	0f 90       	pop	r0
     e34:	09 be       	out	0x39, r0	; 57
     e36:	0f 90       	pop	r0
     e38:	08 be       	out	0x38, r0	; 56
     e3a:	0f 90       	pop	r0
     e3c:	0f be       	out	0x3f, r0	; 63
     e3e:	0f 90       	pop	r0
     e40:	1f 90       	pop	r1
     e42:	18 95       	reti

00000e44 <__vector_79>:
     e44:	1f 92       	push	r1
     e46:	0f 92       	push	r0
     e48:	0f b6       	in	r0, 0x3f	; 63
     e4a:	0f 92       	push	r0
     e4c:	11 24       	eor	r1, r1
     e4e:	08 b6       	in	r0, 0x38	; 56
     e50:	0f 92       	push	r0
     e52:	18 be       	out	0x38, r1	; 56
     e54:	09 b6       	in	r0, 0x39	; 57
     e56:	0f 92       	push	r0
     e58:	19 be       	out	0x39, r1	; 57
     e5a:	0b b6       	in	r0, 0x3b	; 59
     e5c:	0f 92       	push	r0
     e5e:	1b be       	out	0x3b, r1	; 59
     e60:	2f 93       	push	r18
     e62:	3f 93       	push	r19
     e64:	4f 93       	push	r20
     e66:	5f 93       	push	r21
     e68:	6f 93       	push	r22
     e6a:	7f 93       	push	r23
     e6c:	8f 93       	push	r24
     e6e:	9f 93       	push	r25
     e70:	af 93       	push	r26
     e72:	bf 93       	push	r27
     e74:	ef 93       	push	r30
     e76:	ff 93       	push	r31
     e78:	e0 91 1c 22 	lds	r30, 0x221C	; 0x80221c <tc_tcd0_cca_callback>
     e7c:	f0 91 1d 22 	lds	r31, 0x221D	; 0x80221d <tc_tcd0_cca_callback+0x1>
     e80:	30 97       	sbiw	r30, 0x00	; 0
     e82:	09 f0       	breq	.+2      	; 0xe86 <__vector_79+0x42>
     e84:	19 95       	eicall
     e86:	ff 91       	pop	r31
     e88:	ef 91       	pop	r30
     e8a:	bf 91       	pop	r27
     e8c:	af 91       	pop	r26
     e8e:	9f 91       	pop	r25
     e90:	8f 91       	pop	r24
     e92:	7f 91       	pop	r23
     e94:	6f 91       	pop	r22
     e96:	5f 91       	pop	r21
     e98:	4f 91       	pop	r20
     e9a:	3f 91       	pop	r19
     e9c:	2f 91       	pop	r18
     e9e:	0f 90       	pop	r0
     ea0:	0b be       	out	0x3b, r0	; 59
     ea2:	0f 90       	pop	r0
     ea4:	09 be       	out	0x39, r0	; 57
     ea6:	0f 90       	pop	r0
     ea8:	08 be       	out	0x38, r0	; 56
     eaa:	0f 90       	pop	r0
     eac:	0f be       	out	0x3f, r0	; 63
     eae:	0f 90       	pop	r0
     eb0:	1f 90       	pop	r1
     eb2:	18 95       	reti

00000eb4 <__vector_80>:
     eb4:	1f 92       	push	r1
     eb6:	0f 92       	push	r0
     eb8:	0f b6       	in	r0, 0x3f	; 63
     eba:	0f 92       	push	r0
     ebc:	11 24       	eor	r1, r1
     ebe:	08 b6       	in	r0, 0x38	; 56
     ec0:	0f 92       	push	r0
     ec2:	18 be       	out	0x38, r1	; 56
     ec4:	09 b6       	in	r0, 0x39	; 57
     ec6:	0f 92       	push	r0
     ec8:	19 be       	out	0x39, r1	; 57
     eca:	0b b6       	in	r0, 0x3b	; 59
     ecc:	0f 92       	push	r0
     ece:	1b be       	out	0x3b, r1	; 59
     ed0:	2f 93       	push	r18
     ed2:	3f 93       	push	r19
     ed4:	4f 93       	push	r20
     ed6:	5f 93       	push	r21
     ed8:	6f 93       	push	r22
     eda:	7f 93       	push	r23
     edc:	8f 93       	push	r24
     ede:	9f 93       	push	r25
     ee0:	af 93       	push	r26
     ee2:	bf 93       	push	r27
     ee4:	ef 93       	push	r30
     ee6:	ff 93       	push	r31
     ee8:	e0 91 1a 22 	lds	r30, 0x221A	; 0x80221a <tc_tcd0_ccb_callback>
     eec:	f0 91 1b 22 	lds	r31, 0x221B	; 0x80221b <tc_tcd0_ccb_callback+0x1>
     ef0:	30 97       	sbiw	r30, 0x00	; 0
     ef2:	09 f0       	breq	.+2      	; 0xef6 <__vector_80+0x42>
     ef4:	19 95       	eicall
     ef6:	ff 91       	pop	r31
     ef8:	ef 91       	pop	r30
     efa:	bf 91       	pop	r27
     efc:	af 91       	pop	r26
     efe:	9f 91       	pop	r25
     f00:	8f 91       	pop	r24
     f02:	7f 91       	pop	r23
     f04:	6f 91       	pop	r22
     f06:	5f 91       	pop	r21
     f08:	4f 91       	pop	r20
     f0a:	3f 91       	pop	r19
     f0c:	2f 91       	pop	r18
     f0e:	0f 90       	pop	r0
     f10:	0b be       	out	0x3b, r0	; 59
     f12:	0f 90       	pop	r0
     f14:	09 be       	out	0x39, r0	; 57
     f16:	0f 90       	pop	r0
     f18:	08 be       	out	0x38, r0	; 56
     f1a:	0f 90       	pop	r0
     f1c:	0f be       	out	0x3f, r0	; 63
     f1e:	0f 90       	pop	r0
     f20:	1f 90       	pop	r1
     f22:	18 95       	reti

00000f24 <__vector_81>:
     f24:	1f 92       	push	r1
     f26:	0f 92       	push	r0
     f28:	0f b6       	in	r0, 0x3f	; 63
     f2a:	0f 92       	push	r0
     f2c:	11 24       	eor	r1, r1
     f2e:	08 b6       	in	r0, 0x38	; 56
     f30:	0f 92       	push	r0
     f32:	18 be       	out	0x38, r1	; 56
     f34:	09 b6       	in	r0, 0x39	; 57
     f36:	0f 92       	push	r0
     f38:	19 be       	out	0x39, r1	; 57
     f3a:	0b b6       	in	r0, 0x3b	; 59
     f3c:	0f 92       	push	r0
     f3e:	1b be       	out	0x3b, r1	; 59
     f40:	2f 93       	push	r18
     f42:	3f 93       	push	r19
     f44:	4f 93       	push	r20
     f46:	5f 93       	push	r21
     f48:	6f 93       	push	r22
     f4a:	7f 93       	push	r23
     f4c:	8f 93       	push	r24
     f4e:	9f 93       	push	r25
     f50:	af 93       	push	r26
     f52:	bf 93       	push	r27
     f54:	ef 93       	push	r30
     f56:	ff 93       	push	r31
     f58:	e0 91 18 22 	lds	r30, 0x2218	; 0x802218 <tc_tcd0_ccc_callback>
     f5c:	f0 91 19 22 	lds	r31, 0x2219	; 0x802219 <tc_tcd0_ccc_callback+0x1>
     f60:	30 97       	sbiw	r30, 0x00	; 0
     f62:	09 f0       	breq	.+2      	; 0xf66 <__vector_81+0x42>
     f64:	19 95       	eicall
     f66:	ff 91       	pop	r31
     f68:	ef 91       	pop	r30
     f6a:	bf 91       	pop	r27
     f6c:	af 91       	pop	r26
     f6e:	9f 91       	pop	r25
     f70:	8f 91       	pop	r24
     f72:	7f 91       	pop	r23
     f74:	6f 91       	pop	r22
     f76:	5f 91       	pop	r21
     f78:	4f 91       	pop	r20
     f7a:	3f 91       	pop	r19
     f7c:	2f 91       	pop	r18
     f7e:	0f 90       	pop	r0
     f80:	0b be       	out	0x3b, r0	; 59
     f82:	0f 90       	pop	r0
     f84:	09 be       	out	0x39, r0	; 57
     f86:	0f 90       	pop	r0
     f88:	08 be       	out	0x38, r0	; 56
     f8a:	0f 90       	pop	r0
     f8c:	0f be       	out	0x3f, r0	; 63
     f8e:	0f 90       	pop	r0
     f90:	1f 90       	pop	r1
     f92:	18 95       	reti

00000f94 <__vector_82>:
     f94:	1f 92       	push	r1
     f96:	0f 92       	push	r0
     f98:	0f b6       	in	r0, 0x3f	; 63
     f9a:	0f 92       	push	r0
     f9c:	11 24       	eor	r1, r1
     f9e:	08 b6       	in	r0, 0x38	; 56
     fa0:	0f 92       	push	r0
     fa2:	18 be       	out	0x38, r1	; 56
     fa4:	09 b6       	in	r0, 0x39	; 57
     fa6:	0f 92       	push	r0
     fa8:	19 be       	out	0x39, r1	; 57
     faa:	0b b6       	in	r0, 0x3b	; 59
     fac:	0f 92       	push	r0
     fae:	1b be       	out	0x3b, r1	; 59
     fb0:	2f 93       	push	r18
     fb2:	3f 93       	push	r19
     fb4:	4f 93       	push	r20
     fb6:	5f 93       	push	r21
     fb8:	6f 93       	push	r22
     fba:	7f 93       	push	r23
     fbc:	8f 93       	push	r24
     fbe:	9f 93       	push	r25
     fc0:	af 93       	push	r26
     fc2:	bf 93       	push	r27
     fc4:	ef 93       	push	r30
     fc6:	ff 93       	push	r31
     fc8:	e0 91 16 22 	lds	r30, 0x2216	; 0x802216 <tc_tcd0_ccd_callback>
     fcc:	f0 91 17 22 	lds	r31, 0x2217	; 0x802217 <tc_tcd0_ccd_callback+0x1>
     fd0:	30 97       	sbiw	r30, 0x00	; 0
     fd2:	09 f0       	breq	.+2      	; 0xfd6 <__vector_82+0x42>
     fd4:	19 95       	eicall
     fd6:	ff 91       	pop	r31
     fd8:	ef 91       	pop	r30
     fda:	bf 91       	pop	r27
     fdc:	af 91       	pop	r26
     fde:	9f 91       	pop	r25
     fe0:	8f 91       	pop	r24
     fe2:	7f 91       	pop	r23
     fe4:	6f 91       	pop	r22
     fe6:	5f 91       	pop	r21
     fe8:	4f 91       	pop	r20
     fea:	3f 91       	pop	r19
     fec:	2f 91       	pop	r18
     fee:	0f 90       	pop	r0
     ff0:	0b be       	out	0x3b, r0	; 59
     ff2:	0f 90       	pop	r0
     ff4:	09 be       	out	0x39, r0	; 57
     ff6:	0f 90       	pop	r0
     ff8:	08 be       	out	0x38, r0	; 56
     ffa:	0f 90       	pop	r0
     ffc:	0f be       	out	0x3f, r0	; 63
     ffe:	0f 90       	pop	r0
    1000:	1f 90       	pop	r1
    1002:	18 95       	reti

00001004 <__vector_83>:
    1004:	1f 92       	push	r1
    1006:	0f 92       	push	r0
    1008:	0f b6       	in	r0, 0x3f	; 63
    100a:	0f 92       	push	r0
    100c:	11 24       	eor	r1, r1
    100e:	08 b6       	in	r0, 0x38	; 56
    1010:	0f 92       	push	r0
    1012:	18 be       	out	0x38, r1	; 56
    1014:	09 b6       	in	r0, 0x39	; 57
    1016:	0f 92       	push	r0
    1018:	19 be       	out	0x39, r1	; 57
    101a:	0b b6       	in	r0, 0x3b	; 59
    101c:	0f 92       	push	r0
    101e:	1b be       	out	0x3b, r1	; 59
    1020:	2f 93       	push	r18
    1022:	3f 93       	push	r19
    1024:	4f 93       	push	r20
    1026:	5f 93       	push	r21
    1028:	6f 93       	push	r22
    102a:	7f 93       	push	r23
    102c:	8f 93       	push	r24
    102e:	9f 93       	push	r25
    1030:	af 93       	push	r26
    1032:	bf 93       	push	r27
    1034:	ef 93       	push	r30
    1036:	ff 93       	push	r31
    1038:	e0 91 14 22 	lds	r30, 0x2214	; 0x802214 <tc_tcd1_ovf_callback>
    103c:	f0 91 15 22 	lds	r31, 0x2215	; 0x802215 <tc_tcd1_ovf_callback+0x1>
    1040:	30 97       	sbiw	r30, 0x00	; 0
    1042:	09 f0       	breq	.+2      	; 0x1046 <__vector_83+0x42>
    1044:	19 95       	eicall
    1046:	ff 91       	pop	r31
    1048:	ef 91       	pop	r30
    104a:	bf 91       	pop	r27
    104c:	af 91       	pop	r26
    104e:	9f 91       	pop	r25
    1050:	8f 91       	pop	r24
    1052:	7f 91       	pop	r23
    1054:	6f 91       	pop	r22
    1056:	5f 91       	pop	r21
    1058:	4f 91       	pop	r20
    105a:	3f 91       	pop	r19
    105c:	2f 91       	pop	r18
    105e:	0f 90       	pop	r0
    1060:	0b be       	out	0x3b, r0	; 59
    1062:	0f 90       	pop	r0
    1064:	09 be       	out	0x39, r0	; 57
    1066:	0f 90       	pop	r0
    1068:	08 be       	out	0x38, r0	; 56
    106a:	0f 90       	pop	r0
    106c:	0f be       	out	0x3f, r0	; 63
    106e:	0f 90       	pop	r0
    1070:	1f 90       	pop	r1
    1072:	18 95       	reti

00001074 <__vector_84>:
    1074:	1f 92       	push	r1
    1076:	0f 92       	push	r0
    1078:	0f b6       	in	r0, 0x3f	; 63
    107a:	0f 92       	push	r0
    107c:	11 24       	eor	r1, r1
    107e:	08 b6       	in	r0, 0x38	; 56
    1080:	0f 92       	push	r0
    1082:	18 be       	out	0x38, r1	; 56
    1084:	09 b6       	in	r0, 0x39	; 57
    1086:	0f 92       	push	r0
    1088:	19 be       	out	0x39, r1	; 57
    108a:	0b b6       	in	r0, 0x3b	; 59
    108c:	0f 92       	push	r0
    108e:	1b be       	out	0x3b, r1	; 59
    1090:	2f 93       	push	r18
    1092:	3f 93       	push	r19
    1094:	4f 93       	push	r20
    1096:	5f 93       	push	r21
    1098:	6f 93       	push	r22
    109a:	7f 93       	push	r23
    109c:	8f 93       	push	r24
    109e:	9f 93       	push	r25
    10a0:	af 93       	push	r26
    10a2:	bf 93       	push	r27
    10a4:	ef 93       	push	r30
    10a6:	ff 93       	push	r31
    10a8:	e0 91 12 22 	lds	r30, 0x2212	; 0x802212 <tc_tcd1_err_callback>
    10ac:	f0 91 13 22 	lds	r31, 0x2213	; 0x802213 <tc_tcd1_err_callback+0x1>
    10b0:	30 97       	sbiw	r30, 0x00	; 0
    10b2:	09 f0       	breq	.+2      	; 0x10b6 <__vector_84+0x42>
    10b4:	19 95       	eicall
    10b6:	ff 91       	pop	r31
    10b8:	ef 91       	pop	r30
    10ba:	bf 91       	pop	r27
    10bc:	af 91       	pop	r26
    10be:	9f 91       	pop	r25
    10c0:	8f 91       	pop	r24
    10c2:	7f 91       	pop	r23
    10c4:	6f 91       	pop	r22
    10c6:	5f 91       	pop	r21
    10c8:	4f 91       	pop	r20
    10ca:	3f 91       	pop	r19
    10cc:	2f 91       	pop	r18
    10ce:	0f 90       	pop	r0
    10d0:	0b be       	out	0x3b, r0	; 59
    10d2:	0f 90       	pop	r0
    10d4:	09 be       	out	0x39, r0	; 57
    10d6:	0f 90       	pop	r0
    10d8:	08 be       	out	0x38, r0	; 56
    10da:	0f 90       	pop	r0
    10dc:	0f be       	out	0x3f, r0	; 63
    10de:	0f 90       	pop	r0
    10e0:	1f 90       	pop	r1
    10e2:	18 95       	reti

000010e4 <__vector_85>:
    10e4:	1f 92       	push	r1
    10e6:	0f 92       	push	r0
    10e8:	0f b6       	in	r0, 0x3f	; 63
    10ea:	0f 92       	push	r0
    10ec:	11 24       	eor	r1, r1
    10ee:	08 b6       	in	r0, 0x38	; 56
    10f0:	0f 92       	push	r0
    10f2:	18 be       	out	0x38, r1	; 56
    10f4:	09 b6       	in	r0, 0x39	; 57
    10f6:	0f 92       	push	r0
    10f8:	19 be       	out	0x39, r1	; 57
    10fa:	0b b6       	in	r0, 0x3b	; 59
    10fc:	0f 92       	push	r0
    10fe:	1b be       	out	0x3b, r1	; 59
    1100:	2f 93       	push	r18
    1102:	3f 93       	push	r19
    1104:	4f 93       	push	r20
    1106:	5f 93       	push	r21
    1108:	6f 93       	push	r22
    110a:	7f 93       	push	r23
    110c:	8f 93       	push	r24
    110e:	9f 93       	push	r25
    1110:	af 93       	push	r26
    1112:	bf 93       	push	r27
    1114:	ef 93       	push	r30
    1116:	ff 93       	push	r31
    1118:	e0 91 10 22 	lds	r30, 0x2210	; 0x802210 <tc_tcd1_cca_callback>
    111c:	f0 91 11 22 	lds	r31, 0x2211	; 0x802211 <tc_tcd1_cca_callback+0x1>
    1120:	30 97       	sbiw	r30, 0x00	; 0
    1122:	09 f0       	breq	.+2      	; 0x1126 <__vector_85+0x42>
    1124:	19 95       	eicall
    1126:	ff 91       	pop	r31
    1128:	ef 91       	pop	r30
    112a:	bf 91       	pop	r27
    112c:	af 91       	pop	r26
    112e:	9f 91       	pop	r25
    1130:	8f 91       	pop	r24
    1132:	7f 91       	pop	r23
    1134:	6f 91       	pop	r22
    1136:	5f 91       	pop	r21
    1138:	4f 91       	pop	r20
    113a:	3f 91       	pop	r19
    113c:	2f 91       	pop	r18
    113e:	0f 90       	pop	r0
    1140:	0b be       	out	0x3b, r0	; 59
    1142:	0f 90       	pop	r0
    1144:	09 be       	out	0x39, r0	; 57
    1146:	0f 90       	pop	r0
    1148:	08 be       	out	0x38, r0	; 56
    114a:	0f 90       	pop	r0
    114c:	0f be       	out	0x3f, r0	; 63
    114e:	0f 90       	pop	r0
    1150:	1f 90       	pop	r1
    1152:	18 95       	reti

00001154 <__vector_86>:
    1154:	1f 92       	push	r1
    1156:	0f 92       	push	r0
    1158:	0f b6       	in	r0, 0x3f	; 63
    115a:	0f 92       	push	r0
    115c:	11 24       	eor	r1, r1
    115e:	08 b6       	in	r0, 0x38	; 56
    1160:	0f 92       	push	r0
    1162:	18 be       	out	0x38, r1	; 56
    1164:	09 b6       	in	r0, 0x39	; 57
    1166:	0f 92       	push	r0
    1168:	19 be       	out	0x39, r1	; 57
    116a:	0b b6       	in	r0, 0x3b	; 59
    116c:	0f 92       	push	r0
    116e:	1b be       	out	0x3b, r1	; 59
    1170:	2f 93       	push	r18
    1172:	3f 93       	push	r19
    1174:	4f 93       	push	r20
    1176:	5f 93       	push	r21
    1178:	6f 93       	push	r22
    117a:	7f 93       	push	r23
    117c:	8f 93       	push	r24
    117e:	9f 93       	push	r25
    1180:	af 93       	push	r26
    1182:	bf 93       	push	r27
    1184:	ef 93       	push	r30
    1186:	ff 93       	push	r31
    1188:	e0 91 0e 22 	lds	r30, 0x220E	; 0x80220e <tc_tcd1_ccb_callback>
    118c:	f0 91 0f 22 	lds	r31, 0x220F	; 0x80220f <tc_tcd1_ccb_callback+0x1>
    1190:	30 97       	sbiw	r30, 0x00	; 0
    1192:	09 f0       	breq	.+2      	; 0x1196 <__vector_86+0x42>
    1194:	19 95       	eicall
    1196:	ff 91       	pop	r31
    1198:	ef 91       	pop	r30
    119a:	bf 91       	pop	r27
    119c:	af 91       	pop	r26
    119e:	9f 91       	pop	r25
    11a0:	8f 91       	pop	r24
    11a2:	7f 91       	pop	r23
    11a4:	6f 91       	pop	r22
    11a6:	5f 91       	pop	r21
    11a8:	4f 91       	pop	r20
    11aa:	3f 91       	pop	r19
    11ac:	2f 91       	pop	r18
    11ae:	0f 90       	pop	r0
    11b0:	0b be       	out	0x3b, r0	; 59
    11b2:	0f 90       	pop	r0
    11b4:	09 be       	out	0x39, r0	; 57
    11b6:	0f 90       	pop	r0
    11b8:	08 be       	out	0x38, r0	; 56
    11ba:	0f 90       	pop	r0
    11bc:	0f be       	out	0x3f, r0	; 63
    11be:	0f 90       	pop	r0
    11c0:	1f 90       	pop	r1
    11c2:	18 95       	reti

000011c4 <__vector_47>:
    11c4:	1f 92       	push	r1
    11c6:	0f 92       	push	r0
    11c8:	0f b6       	in	r0, 0x3f	; 63
    11ca:	0f 92       	push	r0
    11cc:	11 24       	eor	r1, r1
    11ce:	08 b6       	in	r0, 0x38	; 56
    11d0:	0f 92       	push	r0
    11d2:	18 be       	out	0x38, r1	; 56
    11d4:	09 b6       	in	r0, 0x39	; 57
    11d6:	0f 92       	push	r0
    11d8:	19 be       	out	0x39, r1	; 57
    11da:	0b b6       	in	r0, 0x3b	; 59
    11dc:	0f 92       	push	r0
    11de:	1b be       	out	0x3b, r1	; 59
    11e0:	2f 93       	push	r18
    11e2:	3f 93       	push	r19
    11e4:	4f 93       	push	r20
    11e6:	5f 93       	push	r21
    11e8:	6f 93       	push	r22
    11ea:	7f 93       	push	r23
    11ec:	8f 93       	push	r24
    11ee:	9f 93       	push	r25
    11f0:	af 93       	push	r26
    11f2:	bf 93       	push	r27
    11f4:	ef 93       	push	r30
    11f6:	ff 93       	push	r31
    11f8:	e0 91 0c 22 	lds	r30, 0x220C	; 0x80220c <tc_tce0_ovf_callback>
    11fc:	f0 91 0d 22 	lds	r31, 0x220D	; 0x80220d <tc_tce0_ovf_callback+0x1>
    1200:	30 97       	sbiw	r30, 0x00	; 0
    1202:	09 f0       	breq	.+2      	; 0x1206 <__vector_47+0x42>
    1204:	19 95       	eicall
    1206:	ff 91       	pop	r31
    1208:	ef 91       	pop	r30
    120a:	bf 91       	pop	r27
    120c:	af 91       	pop	r26
    120e:	9f 91       	pop	r25
    1210:	8f 91       	pop	r24
    1212:	7f 91       	pop	r23
    1214:	6f 91       	pop	r22
    1216:	5f 91       	pop	r21
    1218:	4f 91       	pop	r20
    121a:	3f 91       	pop	r19
    121c:	2f 91       	pop	r18
    121e:	0f 90       	pop	r0
    1220:	0b be       	out	0x3b, r0	; 59
    1222:	0f 90       	pop	r0
    1224:	09 be       	out	0x39, r0	; 57
    1226:	0f 90       	pop	r0
    1228:	08 be       	out	0x38, r0	; 56
    122a:	0f 90       	pop	r0
    122c:	0f be       	out	0x3f, r0	; 63
    122e:	0f 90       	pop	r0
    1230:	1f 90       	pop	r1
    1232:	18 95       	reti

00001234 <__vector_48>:
    1234:	1f 92       	push	r1
    1236:	0f 92       	push	r0
    1238:	0f b6       	in	r0, 0x3f	; 63
    123a:	0f 92       	push	r0
    123c:	11 24       	eor	r1, r1
    123e:	08 b6       	in	r0, 0x38	; 56
    1240:	0f 92       	push	r0
    1242:	18 be       	out	0x38, r1	; 56
    1244:	09 b6       	in	r0, 0x39	; 57
    1246:	0f 92       	push	r0
    1248:	19 be       	out	0x39, r1	; 57
    124a:	0b b6       	in	r0, 0x3b	; 59
    124c:	0f 92       	push	r0
    124e:	1b be       	out	0x3b, r1	; 59
    1250:	2f 93       	push	r18
    1252:	3f 93       	push	r19
    1254:	4f 93       	push	r20
    1256:	5f 93       	push	r21
    1258:	6f 93       	push	r22
    125a:	7f 93       	push	r23
    125c:	8f 93       	push	r24
    125e:	9f 93       	push	r25
    1260:	af 93       	push	r26
    1262:	bf 93       	push	r27
    1264:	ef 93       	push	r30
    1266:	ff 93       	push	r31
    1268:	e0 91 0a 22 	lds	r30, 0x220A	; 0x80220a <tc_tce0_err_callback>
    126c:	f0 91 0b 22 	lds	r31, 0x220B	; 0x80220b <tc_tce0_err_callback+0x1>
    1270:	30 97       	sbiw	r30, 0x00	; 0
    1272:	09 f0       	breq	.+2      	; 0x1276 <__vector_48+0x42>
    1274:	19 95       	eicall
    1276:	ff 91       	pop	r31
    1278:	ef 91       	pop	r30
    127a:	bf 91       	pop	r27
    127c:	af 91       	pop	r26
    127e:	9f 91       	pop	r25
    1280:	8f 91       	pop	r24
    1282:	7f 91       	pop	r23
    1284:	6f 91       	pop	r22
    1286:	5f 91       	pop	r21
    1288:	4f 91       	pop	r20
    128a:	3f 91       	pop	r19
    128c:	2f 91       	pop	r18
    128e:	0f 90       	pop	r0
    1290:	0b be       	out	0x3b, r0	; 59
    1292:	0f 90       	pop	r0
    1294:	09 be       	out	0x39, r0	; 57
    1296:	0f 90       	pop	r0
    1298:	08 be       	out	0x38, r0	; 56
    129a:	0f 90       	pop	r0
    129c:	0f be       	out	0x3f, r0	; 63
    129e:	0f 90       	pop	r0
    12a0:	1f 90       	pop	r1
    12a2:	18 95       	reti

000012a4 <__vector_49>:
    12a4:	1f 92       	push	r1
    12a6:	0f 92       	push	r0
    12a8:	0f b6       	in	r0, 0x3f	; 63
    12aa:	0f 92       	push	r0
    12ac:	11 24       	eor	r1, r1
    12ae:	08 b6       	in	r0, 0x38	; 56
    12b0:	0f 92       	push	r0
    12b2:	18 be       	out	0x38, r1	; 56
    12b4:	09 b6       	in	r0, 0x39	; 57
    12b6:	0f 92       	push	r0
    12b8:	19 be       	out	0x39, r1	; 57
    12ba:	0b b6       	in	r0, 0x3b	; 59
    12bc:	0f 92       	push	r0
    12be:	1b be       	out	0x3b, r1	; 59
    12c0:	2f 93       	push	r18
    12c2:	3f 93       	push	r19
    12c4:	4f 93       	push	r20
    12c6:	5f 93       	push	r21
    12c8:	6f 93       	push	r22
    12ca:	7f 93       	push	r23
    12cc:	8f 93       	push	r24
    12ce:	9f 93       	push	r25
    12d0:	af 93       	push	r26
    12d2:	bf 93       	push	r27
    12d4:	ef 93       	push	r30
    12d6:	ff 93       	push	r31
    12d8:	e0 91 08 22 	lds	r30, 0x2208	; 0x802208 <tc_tce0_cca_callback>
    12dc:	f0 91 09 22 	lds	r31, 0x2209	; 0x802209 <tc_tce0_cca_callback+0x1>
    12e0:	30 97       	sbiw	r30, 0x00	; 0
    12e2:	09 f0       	breq	.+2      	; 0x12e6 <__vector_49+0x42>
    12e4:	19 95       	eicall
    12e6:	ff 91       	pop	r31
    12e8:	ef 91       	pop	r30
    12ea:	bf 91       	pop	r27
    12ec:	af 91       	pop	r26
    12ee:	9f 91       	pop	r25
    12f0:	8f 91       	pop	r24
    12f2:	7f 91       	pop	r23
    12f4:	6f 91       	pop	r22
    12f6:	5f 91       	pop	r21
    12f8:	4f 91       	pop	r20
    12fa:	3f 91       	pop	r19
    12fc:	2f 91       	pop	r18
    12fe:	0f 90       	pop	r0
    1300:	0b be       	out	0x3b, r0	; 59
    1302:	0f 90       	pop	r0
    1304:	09 be       	out	0x39, r0	; 57
    1306:	0f 90       	pop	r0
    1308:	08 be       	out	0x38, r0	; 56
    130a:	0f 90       	pop	r0
    130c:	0f be       	out	0x3f, r0	; 63
    130e:	0f 90       	pop	r0
    1310:	1f 90       	pop	r1
    1312:	18 95       	reti

00001314 <__vector_50>:
    1314:	1f 92       	push	r1
    1316:	0f 92       	push	r0
    1318:	0f b6       	in	r0, 0x3f	; 63
    131a:	0f 92       	push	r0
    131c:	11 24       	eor	r1, r1
    131e:	08 b6       	in	r0, 0x38	; 56
    1320:	0f 92       	push	r0
    1322:	18 be       	out	0x38, r1	; 56
    1324:	09 b6       	in	r0, 0x39	; 57
    1326:	0f 92       	push	r0
    1328:	19 be       	out	0x39, r1	; 57
    132a:	0b b6       	in	r0, 0x3b	; 59
    132c:	0f 92       	push	r0
    132e:	1b be       	out	0x3b, r1	; 59
    1330:	2f 93       	push	r18
    1332:	3f 93       	push	r19
    1334:	4f 93       	push	r20
    1336:	5f 93       	push	r21
    1338:	6f 93       	push	r22
    133a:	7f 93       	push	r23
    133c:	8f 93       	push	r24
    133e:	9f 93       	push	r25
    1340:	af 93       	push	r26
    1342:	bf 93       	push	r27
    1344:	ef 93       	push	r30
    1346:	ff 93       	push	r31
    1348:	e0 91 06 22 	lds	r30, 0x2206	; 0x802206 <tc_tce0_ccb_callback>
    134c:	f0 91 07 22 	lds	r31, 0x2207	; 0x802207 <tc_tce0_ccb_callback+0x1>
    1350:	30 97       	sbiw	r30, 0x00	; 0
    1352:	09 f0       	breq	.+2      	; 0x1356 <__vector_50+0x42>
    1354:	19 95       	eicall
    1356:	ff 91       	pop	r31
    1358:	ef 91       	pop	r30
    135a:	bf 91       	pop	r27
    135c:	af 91       	pop	r26
    135e:	9f 91       	pop	r25
    1360:	8f 91       	pop	r24
    1362:	7f 91       	pop	r23
    1364:	6f 91       	pop	r22
    1366:	5f 91       	pop	r21
    1368:	4f 91       	pop	r20
    136a:	3f 91       	pop	r19
    136c:	2f 91       	pop	r18
    136e:	0f 90       	pop	r0
    1370:	0b be       	out	0x3b, r0	; 59
    1372:	0f 90       	pop	r0
    1374:	09 be       	out	0x39, r0	; 57
    1376:	0f 90       	pop	r0
    1378:	08 be       	out	0x38, r0	; 56
    137a:	0f 90       	pop	r0
    137c:	0f be       	out	0x3f, r0	; 63
    137e:	0f 90       	pop	r0
    1380:	1f 90       	pop	r1
    1382:	18 95       	reti

00001384 <__vector_51>:
    1384:	1f 92       	push	r1
    1386:	0f 92       	push	r0
    1388:	0f b6       	in	r0, 0x3f	; 63
    138a:	0f 92       	push	r0
    138c:	11 24       	eor	r1, r1
    138e:	08 b6       	in	r0, 0x38	; 56
    1390:	0f 92       	push	r0
    1392:	18 be       	out	0x38, r1	; 56
    1394:	09 b6       	in	r0, 0x39	; 57
    1396:	0f 92       	push	r0
    1398:	19 be       	out	0x39, r1	; 57
    139a:	0b b6       	in	r0, 0x3b	; 59
    139c:	0f 92       	push	r0
    139e:	1b be       	out	0x3b, r1	; 59
    13a0:	2f 93       	push	r18
    13a2:	3f 93       	push	r19
    13a4:	4f 93       	push	r20
    13a6:	5f 93       	push	r21
    13a8:	6f 93       	push	r22
    13aa:	7f 93       	push	r23
    13ac:	8f 93       	push	r24
    13ae:	9f 93       	push	r25
    13b0:	af 93       	push	r26
    13b2:	bf 93       	push	r27
    13b4:	ef 93       	push	r30
    13b6:	ff 93       	push	r31
    13b8:	e0 91 04 22 	lds	r30, 0x2204	; 0x802204 <tc_tce0_ccc_callback>
    13bc:	f0 91 05 22 	lds	r31, 0x2205	; 0x802205 <tc_tce0_ccc_callback+0x1>
    13c0:	30 97       	sbiw	r30, 0x00	; 0
    13c2:	09 f0       	breq	.+2      	; 0x13c6 <__vector_51+0x42>
    13c4:	19 95       	eicall
    13c6:	ff 91       	pop	r31
    13c8:	ef 91       	pop	r30
    13ca:	bf 91       	pop	r27
    13cc:	af 91       	pop	r26
    13ce:	9f 91       	pop	r25
    13d0:	8f 91       	pop	r24
    13d2:	7f 91       	pop	r23
    13d4:	6f 91       	pop	r22
    13d6:	5f 91       	pop	r21
    13d8:	4f 91       	pop	r20
    13da:	3f 91       	pop	r19
    13dc:	2f 91       	pop	r18
    13de:	0f 90       	pop	r0
    13e0:	0b be       	out	0x3b, r0	; 59
    13e2:	0f 90       	pop	r0
    13e4:	09 be       	out	0x39, r0	; 57
    13e6:	0f 90       	pop	r0
    13e8:	08 be       	out	0x38, r0	; 56
    13ea:	0f 90       	pop	r0
    13ec:	0f be       	out	0x3f, r0	; 63
    13ee:	0f 90       	pop	r0
    13f0:	1f 90       	pop	r1
    13f2:	18 95       	reti

000013f4 <__vector_52>:
    13f4:	1f 92       	push	r1
    13f6:	0f 92       	push	r0
    13f8:	0f b6       	in	r0, 0x3f	; 63
    13fa:	0f 92       	push	r0
    13fc:	11 24       	eor	r1, r1
    13fe:	08 b6       	in	r0, 0x38	; 56
    1400:	0f 92       	push	r0
    1402:	18 be       	out	0x38, r1	; 56
    1404:	09 b6       	in	r0, 0x39	; 57
    1406:	0f 92       	push	r0
    1408:	19 be       	out	0x39, r1	; 57
    140a:	0b b6       	in	r0, 0x3b	; 59
    140c:	0f 92       	push	r0
    140e:	1b be       	out	0x3b, r1	; 59
    1410:	2f 93       	push	r18
    1412:	3f 93       	push	r19
    1414:	4f 93       	push	r20
    1416:	5f 93       	push	r21
    1418:	6f 93       	push	r22
    141a:	7f 93       	push	r23
    141c:	8f 93       	push	r24
    141e:	9f 93       	push	r25
    1420:	af 93       	push	r26
    1422:	bf 93       	push	r27
    1424:	ef 93       	push	r30
    1426:	ff 93       	push	r31
    1428:	e0 91 02 22 	lds	r30, 0x2202	; 0x802202 <tc_tce0_ccd_callback>
    142c:	f0 91 03 22 	lds	r31, 0x2203	; 0x802203 <tc_tce0_ccd_callback+0x1>
    1430:	30 97       	sbiw	r30, 0x00	; 0
    1432:	09 f0       	breq	.+2      	; 0x1436 <__vector_52+0x42>
    1434:	19 95       	eicall
    1436:	ff 91       	pop	r31
    1438:	ef 91       	pop	r30
    143a:	bf 91       	pop	r27
    143c:	af 91       	pop	r26
    143e:	9f 91       	pop	r25
    1440:	8f 91       	pop	r24
    1442:	7f 91       	pop	r23
    1444:	6f 91       	pop	r22
    1446:	5f 91       	pop	r21
    1448:	4f 91       	pop	r20
    144a:	3f 91       	pop	r19
    144c:	2f 91       	pop	r18
    144e:	0f 90       	pop	r0
    1450:	0b be       	out	0x3b, r0	; 59
    1452:	0f 90       	pop	r0
    1454:	09 be       	out	0x39, r0	; 57
    1456:	0f 90       	pop	r0
    1458:	08 be       	out	0x38, r0	; 56
    145a:	0f 90       	pop	r0
    145c:	0f be       	out	0x3f, r0	; 63
    145e:	0f 90       	pop	r0
    1460:	1f 90       	pop	r1
    1462:	18 95       	reti

00001464 <__vector_53>:
    1464:	1f 92       	push	r1
    1466:	0f 92       	push	r0
    1468:	0f b6       	in	r0, 0x3f	; 63
    146a:	0f 92       	push	r0
    146c:	11 24       	eor	r1, r1
    146e:	08 b6       	in	r0, 0x38	; 56
    1470:	0f 92       	push	r0
    1472:	18 be       	out	0x38, r1	; 56
    1474:	09 b6       	in	r0, 0x39	; 57
    1476:	0f 92       	push	r0
    1478:	19 be       	out	0x39, r1	; 57
    147a:	0b b6       	in	r0, 0x3b	; 59
    147c:	0f 92       	push	r0
    147e:	1b be       	out	0x3b, r1	; 59
    1480:	2f 93       	push	r18
    1482:	3f 93       	push	r19
    1484:	4f 93       	push	r20
    1486:	5f 93       	push	r21
    1488:	6f 93       	push	r22
    148a:	7f 93       	push	r23
    148c:	8f 93       	push	r24
    148e:	9f 93       	push	r25
    1490:	af 93       	push	r26
    1492:	bf 93       	push	r27
    1494:	ef 93       	push	r30
    1496:	ff 93       	push	r31
    1498:	e0 91 00 22 	lds	r30, 0x2200	; 0x802200 <tc_tce1_ovf_callback>
    149c:	f0 91 01 22 	lds	r31, 0x2201	; 0x802201 <tc_tce1_ovf_callback+0x1>
    14a0:	30 97       	sbiw	r30, 0x00	; 0
    14a2:	09 f0       	breq	.+2      	; 0x14a6 <__vector_53+0x42>
    14a4:	19 95       	eicall
    14a6:	ff 91       	pop	r31
    14a8:	ef 91       	pop	r30
    14aa:	bf 91       	pop	r27
    14ac:	af 91       	pop	r26
    14ae:	9f 91       	pop	r25
    14b0:	8f 91       	pop	r24
    14b2:	7f 91       	pop	r23
    14b4:	6f 91       	pop	r22
    14b6:	5f 91       	pop	r21
    14b8:	4f 91       	pop	r20
    14ba:	3f 91       	pop	r19
    14bc:	2f 91       	pop	r18
    14be:	0f 90       	pop	r0
    14c0:	0b be       	out	0x3b, r0	; 59
    14c2:	0f 90       	pop	r0
    14c4:	09 be       	out	0x39, r0	; 57
    14c6:	0f 90       	pop	r0
    14c8:	08 be       	out	0x38, r0	; 56
    14ca:	0f 90       	pop	r0
    14cc:	0f be       	out	0x3f, r0	; 63
    14ce:	0f 90       	pop	r0
    14d0:	1f 90       	pop	r1
    14d2:	18 95       	reti

000014d4 <__vector_54>:
    14d4:	1f 92       	push	r1
    14d6:	0f 92       	push	r0
    14d8:	0f b6       	in	r0, 0x3f	; 63
    14da:	0f 92       	push	r0
    14dc:	11 24       	eor	r1, r1
    14de:	08 b6       	in	r0, 0x38	; 56
    14e0:	0f 92       	push	r0
    14e2:	18 be       	out	0x38, r1	; 56
    14e4:	09 b6       	in	r0, 0x39	; 57
    14e6:	0f 92       	push	r0
    14e8:	19 be       	out	0x39, r1	; 57
    14ea:	0b b6       	in	r0, 0x3b	; 59
    14ec:	0f 92       	push	r0
    14ee:	1b be       	out	0x3b, r1	; 59
    14f0:	2f 93       	push	r18
    14f2:	3f 93       	push	r19
    14f4:	4f 93       	push	r20
    14f6:	5f 93       	push	r21
    14f8:	6f 93       	push	r22
    14fa:	7f 93       	push	r23
    14fc:	8f 93       	push	r24
    14fe:	9f 93       	push	r25
    1500:	af 93       	push	r26
    1502:	bf 93       	push	r27
    1504:	ef 93       	push	r30
    1506:	ff 93       	push	r31
    1508:	e0 91 fe 21 	lds	r30, 0x21FE	; 0x8021fe <tc_tce1_err_callback>
    150c:	f0 91 ff 21 	lds	r31, 0x21FF	; 0x8021ff <tc_tce1_err_callback+0x1>
    1510:	30 97       	sbiw	r30, 0x00	; 0
    1512:	09 f0       	breq	.+2      	; 0x1516 <__vector_54+0x42>
    1514:	19 95       	eicall
    1516:	ff 91       	pop	r31
    1518:	ef 91       	pop	r30
    151a:	bf 91       	pop	r27
    151c:	af 91       	pop	r26
    151e:	9f 91       	pop	r25
    1520:	8f 91       	pop	r24
    1522:	7f 91       	pop	r23
    1524:	6f 91       	pop	r22
    1526:	5f 91       	pop	r21
    1528:	4f 91       	pop	r20
    152a:	3f 91       	pop	r19
    152c:	2f 91       	pop	r18
    152e:	0f 90       	pop	r0
    1530:	0b be       	out	0x3b, r0	; 59
    1532:	0f 90       	pop	r0
    1534:	09 be       	out	0x39, r0	; 57
    1536:	0f 90       	pop	r0
    1538:	08 be       	out	0x38, r0	; 56
    153a:	0f 90       	pop	r0
    153c:	0f be       	out	0x3f, r0	; 63
    153e:	0f 90       	pop	r0
    1540:	1f 90       	pop	r1
    1542:	18 95       	reti

00001544 <__vector_55>:
    1544:	1f 92       	push	r1
    1546:	0f 92       	push	r0
    1548:	0f b6       	in	r0, 0x3f	; 63
    154a:	0f 92       	push	r0
    154c:	11 24       	eor	r1, r1
    154e:	08 b6       	in	r0, 0x38	; 56
    1550:	0f 92       	push	r0
    1552:	18 be       	out	0x38, r1	; 56
    1554:	09 b6       	in	r0, 0x39	; 57
    1556:	0f 92       	push	r0
    1558:	19 be       	out	0x39, r1	; 57
    155a:	0b b6       	in	r0, 0x3b	; 59
    155c:	0f 92       	push	r0
    155e:	1b be       	out	0x3b, r1	; 59
    1560:	2f 93       	push	r18
    1562:	3f 93       	push	r19
    1564:	4f 93       	push	r20
    1566:	5f 93       	push	r21
    1568:	6f 93       	push	r22
    156a:	7f 93       	push	r23
    156c:	8f 93       	push	r24
    156e:	9f 93       	push	r25
    1570:	af 93       	push	r26
    1572:	bf 93       	push	r27
    1574:	ef 93       	push	r30
    1576:	ff 93       	push	r31
    1578:	e0 91 fc 21 	lds	r30, 0x21FC	; 0x8021fc <tc_tce1_cca_callback>
    157c:	f0 91 fd 21 	lds	r31, 0x21FD	; 0x8021fd <tc_tce1_cca_callback+0x1>
    1580:	30 97       	sbiw	r30, 0x00	; 0
    1582:	09 f0       	breq	.+2      	; 0x1586 <__vector_55+0x42>
    1584:	19 95       	eicall
    1586:	ff 91       	pop	r31
    1588:	ef 91       	pop	r30
    158a:	bf 91       	pop	r27
    158c:	af 91       	pop	r26
    158e:	9f 91       	pop	r25
    1590:	8f 91       	pop	r24
    1592:	7f 91       	pop	r23
    1594:	6f 91       	pop	r22
    1596:	5f 91       	pop	r21
    1598:	4f 91       	pop	r20
    159a:	3f 91       	pop	r19
    159c:	2f 91       	pop	r18
    159e:	0f 90       	pop	r0
    15a0:	0b be       	out	0x3b, r0	; 59
    15a2:	0f 90       	pop	r0
    15a4:	09 be       	out	0x39, r0	; 57
    15a6:	0f 90       	pop	r0
    15a8:	08 be       	out	0x38, r0	; 56
    15aa:	0f 90       	pop	r0
    15ac:	0f be       	out	0x3f, r0	; 63
    15ae:	0f 90       	pop	r0
    15b0:	1f 90       	pop	r1
    15b2:	18 95       	reti

000015b4 <__vector_56>:
    15b4:	1f 92       	push	r1
    15b6:	0f 92       	push	r0
    15b8:	0f b6       	in	r0, 0x3f	; 63
    15ba:	0f 92       	push	r0
    15bc:	11 24       	eor	r1, r1
    15be:	08 b6       	in	r0, 0x38	; 56
    15c0:	0f 92       	push	r0
    15c2:	18 be       	out	0x38, r1	; 56
    15c4:	09 b6       	in	r0, 0x39	; 57
    15c6:	0f 92       	push	r0
    15c8:	19 be       	out	0x39, r1	; 57
    15ca:	0b b6       	in	r0, 0x3b	; 59
    15cc:	0f 92       	push	r0
    15ce:	1b be       	out	0x3b, r1	; 59
    15d0:	2f 93       	push	r18
    15d2:	3f 93       	push	r19
    15d4:	4f 93       	push	r20
    15d6:	5f 93       	push	r21
    15d8:	6f 93       	push	r22
    15da:	7f 93       	push	r23
    15dc:	8f 93       	push	r24
    15de:	9f 93       	push	r25
    15e0:	af 93       	push	r26
    15e2:	bf 93       	push	r27
    15e4:	ef 93       	push	r30
    15e6:	ff 93       	push	r31
    15e8:	e0 91 fa 21 	lds	r30, 0x21FA	; 0x8021fa <tc_tce1_ccb_callback>
    15ec:	f0 91 fb 21 	lds	r31, 0x21FB	; 0x8021fb <tc_tce1_ccb_callback+0x1>
    15f0:	30 97       	sbiw	r30, 0x00	; 0
    15f2:	09 f0       	breq	.+2      	; 0x15f6 <__vector_56+0x42>
    15f4:	19 95       	eicall
    15f6:	ff 91       	pop	r31
    15f8:	ef 91       	pop	r30
    15fa:	bf 91       	pop	r27
    15fc:	af 91       	pop	r26
    15fe:	9f 91       	pop	r25
    1600:	8f 91       	pop	r24
    1602:	7f 91       	pop	r23
    1604:	6f 91       	pop	r22
    1606:	5f 91       	pop	r21
    1608:	4f 91       	pop	r20
    160a:	3f 91       	pop	r19
    160c:	2f 91       	pop	r18
    160e:	0f 90       	pop	r0
    1610:	0b be       	out	0x3b, r0	; 59
    1612:	0f 90       	pop	r0
    1614:	09 be       	out	0x39, r0	; 57
    1616:	0f 90       	pop	r0
    1618:	08 be       	out	0x38, r0	; 56
    161a:	0f 90       	pop	r0
    161c:	0f be       	out	0x3f, r0	; 63
    161e:	0f 90       	pop	r0
    1620:	1f 90       	pop	r1
    1622:	18 95       	reti

00001624 <__vector_108>:
    1624:	1f 92       	push	r1
    1626:	0f 92       	push	r0
    1628:	0f b6       	in	r0, 0x3f	; 63
    162a:	0f 92       	push	r0
    162c:	11 24       	eor	r1, r1
    162e:	08 b6       	in	r0, 0x38	; 56
    1630:	0f 92       	push	r0
    1632:	18 be       	out	0x38, r1	; 56
    1634:	09 b6       	in	r0, 0x39	; 57
    1636:	0f 92       	push	r0
    1638:	19 be       	out	0x39, r1	; 57
    163a:	0b b6       	in	r0, 0x3b	; 59
    163c:	0f 92       	push	r0
    163e:	1b be       	out	0x3b, r1	; 59
    1640:	2f 93       	push	r18
    1642:	3f 93       	push	r19
    1644:	4f 93       	push	r20
    1646:	5f 93       	push	r21
    1648:	6f 93       	push	r22
    164a:	7f 93       	push	r23
    164c:	8f 93       	push	r24
    164e:	9f 93       	push	r25
    1650:	af 93       	push	r26
    1652:	bf 93       	push	r27
    1654:	ef 93       	push	r30
    1656:	ff 93       	push	r31
    1658:	e0 91 f8 21 	lds	r30, 0x21F8	; 0x8021f8 <tc_tcf0_ovf_callback>
    165c:	f0 91 f9 21 	lds	r31, 0x21F9	; 0x8021f9 <tc_tcf0_ovf_callback+0x1>
    1660:	30 97       	sbiw	r30, 0x00	; 0
    1662:	09 f0       	breq	.+2      	; 0x1666 <__vector_108+0x42>
    1664:	19 95       	eicall
    1666:	ff 91       	pop	r31
    1668:	ef 91       	pop	r30
    166a:	bf 91       	pop	r27
    166c:	af 91       	pop	r26
    166e:	9f 91       	pop	r25
    1670:	8f 91       	pop	r24
    1672:	7f 91       	pop	r23
    1674:	6f 91       	pop	r22
    1676:	5f 91       	pop	r21
    1678:	4f 91       	pop	r20
    167a:	3f 91       	pop	r19
    167c:	2f 91       	pop	r18
    167e:	0f 90       	pop	r0
    1680:	0b be       	out	0x3b, r0	; 59
    1682:	0f 90       	pop	r0
    1684:	09 be       	out	0x39, r0	; 57
    1686:	0f 90       	pop	r0
    1688:	08 be       	out	0x38, r0	; 56
    168a:	0f 90       	pop	r0
    168c:	0f be       	out	0x3f, r0	; 63
    168e:	0f 90       	pop	r0
    1690:	1f 90       	pop	r1
    1692:	18 95       	reti

00001694 <__vector_109>:
    1694:	1f 92       	push	r1
    1696:	0f 92       	push	r0
    1698:	0f b6       	in	r0, 0x3f	; 63
    169a:	0f 92       	push	r0
    169c:	11 24       	eor	r1, r1
    169e:	08 b6       	in	r0, 0x38	; 56
    16a0:	0f 92       	push	r0
    16a2:	18 be       	out	0x38, r1	; 56
    16a4:	09 b6       	in	r0, 0x39	; 57
    16a6:	0f 92       	push	r0
    16a8:	19 be       	out	0x39, r1	; 57
    16aa:	0b b6       	in	r0, 0x3b	; 59
    16ac:	0f 92       	push	r0
    16ae:	1b be       	out	0x3b, r1	; 59
    16b0:	2f 93       	push	r18
    16b2:	3f 93       	push	r19
    16b4:	4f 93       	push	r20
    16b6:	5f 93       	push	r21
    16b8:	6f 93       	push	r22
    16ba:	7f 93       	push	r23
    16bc:	8f 93       	push	r24
    16be:	9f 93       	push	r25
    16c0:	af 93       	push	r26
    16c2:	bf 93       	push	r27
    16c4:	ef 93       	push	r30
    16c6:	ff 93       	push	r31
    16c8:	e0 91 f6 21 	lds	r30, 0x21F6	; 0x8021f6 <tc_tcf0_err_callback>
    16cc:	f0 91 f7 21 	lds	r31, 0x21F7	; 0x8021f7 <tc_tcf0_err_callback+0x1>
    16d0:	30 97       	sbiw	r30, 0x00	; 0
    16d2:	09 f0       	breq	.+2      	; 0x16d6 <__vector_109+0x42>
    16d4:	19 95       	eicall
    16d6:	ff 91       	pop	r31
    16d8:	ef 91       	pop	r30
    16da:	bf 91       	pop	r27
    16dc:	af 91       	pop	r26
    16de:	9f 91       	pop	r25
    16e0:	8f 91       	pop	r24
    16e2:	7f 91       	pop	r23
    16e4:	6f 91       	pop	r22
    16e6:	5f 91       	pop	r21
    16e8:	4f 91       	pop	r20
    16ea:	3f 91       	pop	r19
    16ec:	2f 91       	pop	r18
    16ee:	0f 90       	pop	r0
    16f0:	0b be       	out	0x3b, r0	; 59
    16f2:	0f 90       	pop	r0
    16f4:	09 be       	out	0x39, r0	; 57
    16f6:	0f 90       	pop	r0
    16f8:	08 be       	out	0x38, r0	; 56
    16fa:	0f 90       	pop	r0
    16fc:	0f be       	out	0x3f, r0	; 63
    16fe:	0f 90       	pop	r0
    1700:	1f 90       	pop	r1
    1702:	18 95       	reti

00001704 <__vector_110>:
    1704:	1f 92       	push	r1
    1706:	0f 92       	push	r0
    1708:	0f b6       	in	r0, 0x3f	; 63
    170a:	0f 92       	push	r0
    170c:	11 24       	eor	r1, r1
    170e:	08 b6       	in	r0, 0x38	; 56
    1710:	0f 92       	push	r0
    1712:	18 be       	out	0x38, r1	; 56
    1714:	09 b6       	in	r0, 0x39	; 57
    1716:	0f 92       	push	r0
    1718:	19 be       	out	0x39, r1	; 57
    171a:	0b b6       	in	r0, 0x3b	; 59
    171c:	0f 92       	push	r0
    171e:	1b be       	out	0x3b, r1	; 59
    1720:	2f 93       	push	r18
    1722:	3f 93       	push	r19
    1724:	4f 93       	push	r20
    1726:	5f 93       	push	r21
    1728:	6f 93       	push	r22
    172a:	7f 93       	push	r23
    172c:	8f 93       	push	r24
    172e:	9f 93       	push	r25
    1730:	af 93       	push	r26
    1732:	bf 93       	push	r27
    1734:	ef 93       	push	r30
    1736:	ff 93       	push	r31
    1738:	e0 91 f4 21 	lds	r30, 0x21F4	; 0x8021f4 <tc_tcf0_cca_callback>
    173c:	f0 91 f5 21 	lds	r31, 0x21F5	; 0x8021f5 <tc_tcf0_cca_callback+0x1>
    1740:	30 97       	sbiw	r30, 0x00	; 0
    1742:	09 f0       	breq	.+2      	; 0x1746 <__vector_110+0x42>
    1744:	19 95       	eicall
    1746:	ff 91       	pop	r31
    1748:	ef 91       	pop	r30
    174a:	bf 91       	pop	r27
    174c:	af 91       	pop	r26
    174e:	9f 91       	pop	r25
    1750:	8f 91       	pop	r24
    1752:	7f 91       	pop	r23
    1754:	6f 91       	pop	r22
    1756:	5f 91       	pop	r21
    1758:	4f 91       	pop	r20
    175a:	3f 91       	pop	r19
    175c:	2f 91       	pop	r18
    175e:	0f 90       	pop	r0
    1760:	0b be       	out	0x3b, r0	; 59
    1762:	0f 90       	pop	r0
    1764:	09 be       	out	0x39, r0	; 57
    1766:	0f 90       	pop	r0
    1768:	08 be       	out	0x38, r0	; 56
    176a:	0f 90       	pop	r0
    176c:	0f be       	out	0x3f, r0	; 63
    176e:	0f 90       	pop	r0
    1770:	1f 90       	pop	r1
    1772:	18 95       	reti

00001774 <__vector_111>:
    1774:	1f 92       	push	r1
    1776:	0f 92       	push	r0
    1778:	0f b6       	in	r0, 0x3f	; 63
    177a:	0f 92       	push	r0
    177c:	11 24       	eor	r1, r1
    177e:	08 b6       	in	r0, 0x38	; 56
    1780:	0f 92       	push	r0
    1782:	18 be       	out	0x38, r1	; 56
    1784:	09 b6       	in	r0, 0x39	; 57
    1786:	0f 92       	push	r0
    1788:	19 be       	out	0x39, r1	; 57
    178a:	0b b6       	in	r0, 0x3b	; 59
    178c:	0f 92       	push	r0
    178e:	1b be       	out	0x3b, r1	; 59
    1790:	2f 93       	push	r18
    1792:	3f 93       	push	r19
    1794:	4f 93       	push	r20
    1796:	5f 93       	push	r21
    1798:	6f 93       	push	r22
    179a:	7f 93       	push	r23
    179c:	8f 93       	push	r24
    179e:	9f 93       	push	r25
    17a0:	af 93       	push	r26
    17a2:	bf 93       	push	r27
    17a4:	ef 93       	push	r30
    17a6:	ff 93       	push	r31
    17a8:	e0 91 f2 21 	lds	r30, 0x21F2	; 0x8021f2 <tc_tcf0_ccb_callback>
    17ac:	f0 91 f3 21 	lds	r31, 0x21F3	; 0x8021f3 <tc_tcf0_ccb_callback+0x1>
    17b0:	30 97       	sbiw	r30, 0x00	; 0
    17b2:	09 f0       	breq	.+2      	; 0x17b6 <__vector_111+0x42>
    17b4:	19 95       	eicall
    17b6:	ff 91       	pop	r31
    17b8:	ef 91       	pop	r30
    17ba:	bf 91       	pop	r27
    17bc:	af 91       	pop	r26
    17be:	9f 91       	pop	r25
    17c0:	8f 91       	pop	r24
    17c2:	7f 91       	pop	r23
    17c4:	6f 91       	pop	r22
    17c6:	5f 91       	pop	r21
    17c8:	4f 91       	pop	r20
    17ca:	3f 91       	pop	r19
    17cc:	2f 91       	pop	r18
    17ce:	0f 90       	pop	r0
    17d0:	0b be       	out	0x3b, r0	; 59
    17d2:	0f 90       	pop	r0
    17d4:	09 be       	out	0x39, r0	; 57
    17d6:	0f 90       	pop	r0
    17d8:	08 be       	out	0x38, r0	; 56
    17da:	0f 90       	pop	r0
    17dc:	0f be       	out	0x3f, r0	; 63
    17de:	0f 90       	pop	r0
    17e0:	1f 90       	pop	r1
    17e2:	18 95       	reti

000017e4 <__vector_112>:
    17e4:	1f 92       	push	r1
    17e6:	0f 92       	push	r0
    17e8:	0f b6       	in	r0, 0x3f	; 63
    17ea:	0f 92       	push	r0
    17ec:	11 24       	eor	r1, r1
    17ee:	08 b6       	in	r0, 0x38	; 56
    17f0:	0f 92       	push	r0
    17f2:	18 be       	out	0x38, r1	; 56
    17f4:	09 b6       	in	r0, 0x39	; 57
    17f6:	0f 92       	push	r0
    17f8:	19 be       	out	0x39, r1	; 57
    17fa:	0b b6       	in	r0, 0x3b	; 59
    17fc:	0f 92       	push	r0
    17fe:	1b be       	out	0x3b, r1	; 59
    1800:	2f 93       	push	r18
    1802:	3f 93       	push	r19
    1804:	4f 93       	push	r20
    1806:	5f 93       	push	r21
    1808:	6f 93       	push	r22
    180a:	7f 93       	push	r23
    180c:	8f 93       	push	r24
    180e:	9f 93       	push	r25
    1810:	af 93       	push	r26
    1812:	bf 93       	push	r27
    1814:	ef 93       	push	r30
    1816:	ff 93       	push	r31
    1818:	e0 91 f0 21 	lds	r30, 0x21F0	; 0x8021f0 <tc_tcf0_ccc_callback>
    181c:	f0 91 f1 21 	lds	r31, 0x21F1	; 0x8021f1 <tc_tcf0_ccc_callback+0x1>
    1820:	30 97       	sbiw	r30, 0x00	; 0
    1822:	09 f0       	breq	.+2      	; 0x1826 <__vector_112+0x42>
    1824:	19 95       	eicall
    1826:	ff 91       	pop	r31
    1828:	ef 91       	pop	r30
    182a:	bf 91       	pop	r27
    182c:	af 91       	pop	r26
    182e:	9f 91       	pop	r25
    1830:	8f 91       	pop	r24
    1832:	7f 91       	pop	r23
    1834:	6f 91       	pop	r22
    1836:	5f 91       	pop	r21
    1838:	4f 91       	pop	r20
    183a:	3f 91       	pop	r19
    183c:	2f 91       	pop	r18
    183e:	0f 90       	pop	r0
    1840:	0b be       	out	0x3b, r0	; 59
    1842:	0f 90       	pop	r0
    1844:	09 be       	out	0x39, r0	; 57
    1846:	0f 90       	pop	r0
    1848:	08 be       	out	0x38, r0	; 56
    184a:	0f 90       	pop	r0
    184c:	0f be       	out	0x3f, r0	; 63
    184e:	0f 90       	pop	r0
    1850:	1f 90       	pop	r1
    1852:	18 95       	reti

00001854 <__vector_113>:
    1854:	1f 92       	push	r1
    1856:	0f 92       	push	r0
    1858:	0f b6       	in	r0, 0x3f	; 63
    185a:	0f 92       	push	r0
    185c:	11 24       	eor	r1, r1
    185e:	08 b6       	in	r0, 0x38	; 56
    1860:	0f 92       	push	r0
    1862:	18 be       	out	0x38, r1	; 56
    1864:	09 b6       	in	r0, 0x39	; 57
    1866:	0f 92       	push	r0
    1868:	19 be       	out	0x39, r1	; 57
    186a:	0b b6       	in	r0, 0x3b	; 59
    186c:	0f 92       	push	r0
    186e:	1b be       	out	0x3b, r1	; 59
    1870:	2f 93       	push	r18
    1872:	3f 93       	push	r19
    1874:	4f 93       	push	r20
    1876:	5f 93       	push	r21
    1878:	6f 93       	push	r22
    187a:	7f 93       	push	r23
    187c:	8f 93       	push	r24
    187e:	9f 93       	push	r25
    1880:	af 93       	push	r26
    1882:	bf 93       	push	r27
    1884:	ef 93       	push	r30
    1886:	ff 93       	push	r31
    1888:	e0 91 ee 21 	lds	r30, 0x21EE	; 0x8021ee <tc_tcf0_ccd_callback>
    188c:	f0 91 ef 21 	lds	r31, 0x21EF	; 0x8021ef <tc_tcf0_ccd_callback+0x1>
    1890:	30 97       	sbiw	r30, 0x00	; 0
    1892:	09 f0       	breq	.+2      	; 0x1896 <__vector_113+0x42>
    1894:	19 95       	eicall
    1896:	ff 91       	pop	r31
    1898:	ef 91       	pop	r30
    189a:	bf 91       	pop	r27
    189c:	af 91       	pop	r26
    189e:	9f 91       	pop	r25
    18a0:	8f 91       	pop	r24
    18a2:	7f 91       	pop	r23
    18a4:	6f 91       	pop	r22
    18a6:	5f 91       	pop	r21
    18a8:	4f 91       	pop	r20
    18aa:	3f 91       	pop	r19
    18ac:	2f 91       	pop	r18
    18ae:	0f 90       	pop	r0
    18b0:	0b be       	out	0x3b, r0	; 59
    18b2:	0f 90       	pop	r0
    18b4:	09 be       	out	0x39, r0	; 57
    18b6:	0f 90       	pop	r0
    18b8:	08 be       	out	0x38, r0	; 56
    18ba:	0f 90       	pop	r0
    18bc:	0f be       	out	0x3f, r0	; 63
    18be:	0f 90       	pop	r0
    18c0:	1f 90       	pop	r1
    18c2:	18 95       	reti

000018c4 <__vector_114>:
    18c4:	1f 92       	push	r1
    18c6:	0f 92       	push	r0
    18c8:	0f b6       	in	r0, 0x3f	; 63
    18ca:	0f 92       	push	r0
    18cc:	11 24       	eor	r1, r1
    18ce:	08 b6       	in	r0, 0x38	; 56
    18d0:	0f 92       	push	r0
    18d2:	18 be       	out	0x38, r1	; 56
    18d4:	09 b6       	in	r0, 0x39	; 57
    18d6:	0f 92       	push	r0
    18d8:	19 be       	out	0x39, r1	; 57
    18da:	0b b6       	in	r0, 0x3b	; 59
    18dc:	0f 92       	push	r0
    18de:	1b be       	out	0x3b, r1	; 59
    18e0:	2f 93       	push	r18
    18e2:	3f 93       	push	r19
    18e4:	4f 93       	push	r20
    18e6:	5f 93       	push	r21
    18e8:	6f 93       	push	r22
    18ea:	7f 93       	push	r23
    18ec:	8f 93       	push	r24
    18ee:	9f 93       	push	r25
    18f0:	af 93       	push	r26
    18f2:	bf 93       	push	r27
    18f4:	ef 93       	push	r30
    18f6:	ff 93       	push	r31
    18f8:	e0 91 ec 21 	lds	r30, 0x21EC	; 0x8021ec <tc_tcf1_ovf_callback>
    18fc:	f0 91 ed 21 	lds	r31, 0x21ED	; 0x8021ed <tc_tcf1_ovf_callback+0x1>
    1900:	30 97       	sbiw	r30, 0x00	; 0
    1902:	09 f0       	breq	.+2      	; 0x1906 <__vector_114+0x42>
    1904:	19 95       	eicall
    1906:	ff 91       	pop	r31
    1908:	ef 91       	pop	r30
    190a:	bf 91       	pop	r27
    190c:	af 91       	pop	r26
    190e:	9f 91       	pop	r25
    1910:	8f 91       	pop	r24
    1912:	7f 91       	pop	r23
    1914:	6f 91       	pop	r22
    1916:	5f 91       	pop	r21
    1918:	4f 91       	pop	r20
    191a:	3f 91       	pop	r19
    191c:	2f 91       	pop	r18
    191e:	0f 90       	pop	r0
    1920:	0b be       	out	0x3b, r0	; 59
    1922:	0f 90       	pop	r0
    1924:	09 be       	out	0x39, r0	; 57
    1926:	0f 90       	pop	r0
    1928:	08 be       	out	0x38, r0	; 56
    192a:	0f 90       	pop	r0
    192c:	0f be       	out	0x3f, r0	; 63
    192e:	0f 90       	pop	r0
    1930:	1f 90       	pop	r1
    1932:	18 95       	reti

00001934 <__vector_115>:
    1934:	1f 92       	push	r1
    1936:	0f 92       	push	r0
    1938:	0f b6       	in	r0, 0x3f	; 63
    193a:	0f 92       	push	r0
    193c:	11 24       	eor	r1, r1
    193e:	08 b6       	in	r0, 0x38	; 56
    1940:	0f 92       	push	r0
    1942:	18 be       	out	0x38, r1	; 56
    1944:	09 b6       	in	r0, 0x39	; 57
    1946:	0f 92       	push	r0
    1948:	19 be       	out	0x39, r1	; 57
    194a:	0b b6       	in	r0, 0x3b	; 59
    194c:	0f 92       	push	r0
    194e:	1b be       	out	0x3b, r1	; 59
    1950:	2f 93       	push	r18
    1952:	3f 93       	push	r19
    1954:	4f 93       	push	r20
    1956:	5f 93       	push	r21
    1958:	6f 93       	push	r22
    195a:	7f 93       	push	r23
    195c:	8f 93       	push	r24
    195e:	9f 93       	push	r25
    1960:	af 93       	push	r26
    1962:	bf 93       	push	r27
    1964:	ef 93       	push	r30
    1966:	ff 93       	push	r31
    1968:	e0 91 ea 21 	lds	r30, 0x21EA	; 0x8021ea <tc_tcf1_err_callback>
    196c:	f0 91 eb 21 	lds	r31, 0x21EB	; 0x8021eb <tc_tcf1_err_callback+0x1>
    1970:	30 97       	sbiw	r30, 0x00	; 0
    1972:	09 f0       	breq	.+2      	; 0x1976 <__vector_115+0x42>
    1974:	19 95       	eicall
    1976:	ff 91       	pop	r31
    1978:	ef 91       	pop	r30
    197a:	bf 91       	pop	r27
    197c:	af 91       	pop	r26
    197e:	9f 91       	pop	r25
    1980:	8f 91       	pop	r24
    1982:	7f 91       	pop	r23
    1984:	6f 91       	pop	r22
    1986:	5f 91       	pop	r21
    1988:	4f 91       	pop	r20
    198a:	3f 91       	pop	r19
    198c:	2f 91       	pop	r18
    198e:	0f 90       	pop	r0
    1990:	0b be       	out	0x3b, r0	; 59
    1992:	0f 90       	pop	r0
    1994:	09 be       	out	0x39, r0	; 57
    1996:	0f 90       	pop	r0
    1998:	08 be       	out	0x38, r0	; 56
    199a:	0f 90       	pop	r0
    199c:	0f be       	out	0x3f, r0	; 63
    199e:	0f 90       	pop	r0
    19a0:	1f 90       	pop	r1
    19a2:	18 95       	reti

000019a4 <__vector_116>:
    19a4:	1f 92       	push	r1
    19a6:	0f 92       	push	r0
    19a8:	0f b6       	in	r0, 0x3f	; 63
    19aa:	0f 92       	push	r0
    19ac:	11 24       	eor	r1, r1
    19ae:	08 b6       	in	r0, 0x38	; 56
    19b0:	0f 92       	push	r0
    19b2:	18 be       	out	0x38, r1	; 56
    19b4:	09 b6       	in	r0, 0x39	; 57
    19b6:	0f 92       	push	r0
    19b8:	19 be       	out	0x39, r1	; 57
    19ba:	0b b6       	in	r0, 0x3b	; 59
    19bc:	0f 92       	push	r0
    19be:	1b be       	out	0x3b, r1	; 59
    19c0:	2f 93       	push	r18
    19c2:	3f 93       	push	r19
    19c4:	4f 93       	push	r20
    19c6:	5f 93       	push	r21
    19c8:	6f 93       	push	r22
    19ca:	7f 93       	push	r23
    19cc:	8f 93       	push	r24
    19ce:	9f 93       	push	r25
    19d0:	af 93       	push	r26
    19d2:	bf 93       	push	r27
    19d4:	ef 93       	push	r30
    19d6:	ff 93       	push	r31
    19d8:	e0 91 e8 21 	lds	r30, 0x21E8	; 0x8021e8 <tc_tcf1_cca_callback>
    19dc:	f0 91 e9 21 	lds	r31, 0x21E9	; 0x8021e9 <tc_tcf1_cca_callback+0x1>
    19e0:	30 97       	sbiw	r30, 0x00	; 0
    19e2:	09 f0       	breq	.+2      	; 0x19e6 <__vector_116+0x42>
    19e4:	19 95       	eicall
    19e6:	ff 91       	pop	r31
    19e8:	ef 91       	pop	r30
    19ea:	bf 91       	pop	r27
    19ec:	af 91       	pop	r26
    19ee:	9f 91       	pop	r25
    19f0:	8f 91       	pop	r24
    19f2:	7f 91       	pop	r23
    19f4:	6f 91       	pop	r22
    19f6:	5f 91       	pop	r21
    19f8:	4f 91       	pop	r20
    19fa:	3f 91       	pop	r19
    19fc:	2f 91       	pop	r18
    19fe:	0f 90       	pop	r0
    1a00:	0b be       	out	0x3b, r0	; 59
    1a02:	0f 90       	pop	r0
    1a04:	09 be       	out	0x39, r0	; 57
    1a06:	0f 90       	pop	r0
    1a08:	08 be       	out	0x38, r0	; 56
    1a0a:	0f 90       	pop	r0
    1a0c:	0f be       	out	0x3f, r0	; 63
    1a0e:	0f 90       	pop	r0
    1a10:	1f 90       	pop	r1
    1a12:	18 95       	reti

00001a14 <__vector_117>:
    1a14:	1f 92       	push	r1
    1a16:	0f 92       	push	r0
    1a18:	0f b6       	in	r0, 0x3f	; 63
    1a1a:	0f 92       	push	r0
    1a1c:	11 24       	eor	r1, r1
    1a1e:	08 b6       	in	r0, 0x38	; 56
    1a20:	0f 92       	push	r0
    1a22:	18 be       	out	0x38, r1	; 56
    1a24:	09 b6       	in	r0, 0x39	; 57
    1a26:	0f 92       	push	r0
    1a28:	19 be       	out	0x39, r1	; 57
    1a2a:	0b b6       	in	r0, 0x3b	; 59
    1a2c:	0f 92       	push	r0
    1a2e:	1b be       	out	0x3b, r1	; 59
    1a30:	2f 93       	push	r18
    1a32:	3f 93       	push	r19
    1a34:	4f 93       	push	r20
    1a36:	5f 93       	push	r21
    1a38:	6f 93       	push	r22
    1a3a:	7f 93       	push	r23
    1a3c:	8f 93       	push	r24
    1a3e:	9f 93       	push	r25
    1a40:	af 93       	push	r26
    1a42:	bf 93       	push	r27
    1a44:	ef 93       	push	r30
    1a46:	ff 93       	push	r31
    1a48:	e0 91 e6 21 	lds	r30, 0x21E6	; 0x8021e6 <tc_tcf1_ccb_callback>
    1a4c:	f0 91 e7 21 	lds	r31, 0x21E7	; 0x8021e7 <tc_tcf1_ccb_callback+0x1>
    1a50:	30 97       	sbiw	r30, 0x00	; 0
    1a52:	09 f0       	breq	.+2      	; 0x1a56 <__vector_117+0x42>
    1a54:	19 95       	eicall
    1a56:	ff 91       	pop	r31
    1a58:	ef 91       	pop	r30
    1a5a:	bf 91       	pop	r27
    1a5c:	af 91       	pop	r26
    1a5e:	9f 91       	pop	r25
    1a60:	8f 91       	pop	r24
    1a62:	7f 91       	pop	r23
    1a64:	6f 91       	pop	r22
    1a66:	5f 91       	pop	r21
    1a68:	4f 91       	pop	r20
    1a6a:	3f 91       	pop	r19
    1a6c:	2f 91       	pop	r18
    1a6e:	0f 90       	pop	r0
    1a70:	0b be       	out	0x3b, r0	; 59
    1a72:	0f 90       	pop	r0
    1a74:	09 be       	out	0x39, r0	; 57
    1a76:	0f 90       	pop	r0
    1a78:	08 be       	out	0x38, r0	; 56
    1a7a:	0f 90       	pop	r0
    1a7c:	0f be       	out	0x3f, r0	; 63
    1a7e:	0f 90       	pop	r0
    1a80:	1f 90       	pop	r1
    1a82:	18 95       	reti

00001a84 <MQTTSerialize_connectLength>:
    1a84:	ef 92       	push	r14
    1a86:	ff 92       	push	r15
    1a88:	0f 93       	push	r16
    1a8a:	1f 93       	push	r17
    1a8c:	cf 93       	push	r28
    1a8e:	df 93       	push	r29
    1a90:	ec 01       	movw	r28, r24
    1a92:	8e 81       	ldd	r24, Y+6	; 0x06
    1a94:	83 30       	cpi	r24, 0x03	; 3
    1a96:	29 f0       	breq	.+10     	; 0x1aa2 <MQTTSerialize_connectLength+0x1e>
    1a98:	84 30       	cpi	r24, 0x04	; 4
    1a9a:	31 f4       	brne	.+12     	; 0x1aa8 <MQTTSerialize_connectLength+0x24>
    1a9c:	0a e0       	ldi	r16, 0x0A	; 10
    1a9e:	10 e0       	ldi	r17, 0x00	; 0
    1aa0:	05 c0       	rjmp	.+10     	; 0x1aac <MQTTSerialize_connectLength+0x28>
    1aa2:	0c e0       	ldi	r16, 0x0C	; 12
    1aa4:	10 e0       	ldi	r17, 0x00	; 0
    1aa6:	02 c0       	rjmp	.+4      	; 0x1aac <MQTTSerialize_connectLength+0x28>
    1aa8:	00 e0       	ldi	r16, 0x00	; 0
    1aaa:	10 e0       	ldi	r17, 0x00	; 0
    1aac:	4f 81       	ldd	r20, Y+7	; 0x07
    1aae:	58 85       	ldd	r21, Y+8	; 0x08
    1ab0:	69 85       	ldd	r22, Y+9	; 0x09
    1ab2:	7a 85       	ldd	r23, Y+10	; 0x0a
    1ab4:	8b 85       	ldd	r24, Y+11	; 0x0b
    1ab6:	9c 85       	ldd	r25, Y+12	; 0x0c
    1ab8:	08 d2       	rcall	.+1040   	; 0x1eca <MQTTstrlen>
    1aba:	02 96       	adiw	r24, 0x02	; 2
    1abc:	08 0f       	add	r16, r24
    1abe:	19 1f       	adc	r17, r25
    1ac0:	88 89       	ldd	r24, Y+16	; 0x10
    1ac2:	88 23       	and	r24, r24
    1ac4:	a1 f0       	breq	.+40     	; 0x1aee <MQTTSerialize_connectLength+0x6a>
    1ac6:	4f 89       	ldd	r20, Y+23	; 0x17
    1ac8:	58 8d       	ldd	r21, Y+24	; 0x18
    1aca:	69 8d       	ldd	r22, Y+25	; 0x19
    1acc:	7a 8d       	ldd	r23, Y+26	; 0x1a
    1ace:	8b 8d       	ldd	r24, Y+27	; 0x1b
    1ad0:	9c 8d       	ldd	r25, Y+28	; 0x1c
    1ad2:	fb d1       	rcall	.+1014   	; 0x1eca <MQTTstrlen>
    1ad4:	7c 01       	movw	r14, r24
    1ad6:	4d 8d       	ldd	r20, Y+29	; 0x1d
    1ad8:	5e 8d       	ldd	r21, Y+30	; 0x1e
    1ada:	6f 8d       	ldd	r22, Y+31	; 0x1f
    1adc:	78 a1       	ldd	r23, Y+32	; 0x20
    1ade:	89 a1       	ldd	r24, Y+33	; 0x21
    1ae0:	9a a1       	ldd	r25, Y+34	; 0x22
    1ae2:	f3 d1       	rcall	.+998    	; 0x1eca <MQTTstrlen>
    1ae4:	8e 0d       	add	r24, r14
    1ae6:	9f 1d       	adc	r25, r15
    1ae8:	04 96       	adiw	r24, 0x04	; 4
    1aea:	08 0f       	add	r16, r24
    1aec:	19 1f       	adc	r17, r25
    1aee:	8d a1       	ldd	r24, Y+37	; 0x25
    1af0:	9e a1       	ldd	r25, Y+38	; 0x26
    1af2:	89 2b       	or	r24, r25
    1af4:	21 f4       	brne	.+8      	; 0x1afe <MQTTSerialize_connectLength+0x7a>
    1af6:	89 a5       	ldd	r24, Y+41	; 0x29
    1af8:	9a a5       	ldd	r25, Y+42	; 0x2a
    1afa:	89 2b       	or	r24, r25
    1afc:	51 f0       	breq	.+20     	; 0x1b12 <MQTTSerialize_connectLength+0x8e>
    1afe:	4d a1       	ldd	r20, Y+37	; 0x25
    1b00:	5e a1       	ldd	r21, Y+38	; 0x26
    1b02:	6f a1       	ldd	r22, Y+39	; 0x27
    1b04:	78 a5       	ldd	r23, Y+40	; 0x28
    1b06:	89 a5       	ldd	r24, Y+41	; 0x29
    1b08:	9a a5       	ldd	r25, Y+42	; 0x2a
    1b0a:	df d1       	rcall	.+958    	; 0x1eca <MQTTstrlen>
    1b0c:	02 96       	adiw	r24, 0x02	; 2
    1b0e:	08 0f       	add	r16, r24
    1b10:	19 1f       	adc	r17, r25
    1b12:	8b a5       	ldd	r24, Y+43	; 0x2b
    1b14:	9c a5       	ldd	r25, Y+44	; 0x2c
    1b16:	89 2b       	or	r24, r25
    1b18:	21 f4       	brne	.+8      	; 0x1b22 <MQTTSerialize_connectLength+0x9e>
    1b1a:	8f a5       	ldd	r24, Y+47	; 0x2f
    1b1c:	98 a9       	ldd	r25, Y+48	; 0x30
    1b1e:	89 2b       	or	r24, r25
    1b20:	51 f0       	breq	.+20     	; 0x1b36 <MQTTSerialize_connectLength+0xb2>
    1b22:	4b a5       	ldd	r20, Y+43	; 0x2b
    1b24:	5c a5       	ldd	r21, Y+44	; 0x2c
    1b26:	6d a5       	ldd	r22, Y+45	; 0x2d
    1b28:	7e a5       	ldd	r23, Y+46	; 0x2e
    1b2a:	8f a5       	ldd	r24, Y+47	; 0x2f
    1b2c:	98 a9       	ldd	r25, Y+48	; 0x30
    1b2e:	cd d1       	rcall	.+922    	; 0x1eca <MQTTstrlen>
    1b30:	02 96       	adiw	r24, 0x02	; 2
    1b32:	08 0f       	add	r16, r24
    1b34:	19 1f       	adc	r17, r25
    1b36:	c8 01       	movw	r24, r16
    1b38:	df 91       	pop	r29
    1b3a:	cf 91       	pop	r28
    1b3c:	1f 91       	pop	r17
    1b3e:	0f 91       	pop	r16
    1b40:	ff 90       	pop	r15
    1b42:	ef 90       	pop	r14
    1b44:	08 95       	ret

00001b46 <MQTTSerialize_connect>:
    1b46:	af 92       	push	r10
    1b48:	bf 92       	push	r11
    1b4a:	cf 92       	push	r12
    1b4c:	df 92       	push	r13
    1b4e:	ef 92       	push	r14
    1b50:	ff 92       	push	r15
    1b52:	0f 93       	push	r16
    1b54:	1f 93       	push	r17
    1b56:	cf 93       	push	r28
    1b58:	df 93       	push	r29
    1b5a:	1f 92       	push	r1
    1b5c:	1f 92       	push	r1
    1b5e:	cd b7       	in	r28, 0x3d	; 61
    1b60:	de b7       	in	r29, 0x3e	; 62
    1b62:	6c 01       	movw	r12, r24
    1b64:	5b 01       	movw	r10, r22
    1b66:	8a 01       	movw	r16, r20
    1b68:	89 83       	std	Y+1, r24	; 0x01
    1b6a:	9a 83       	std	Y+2, r25	; 0x02
    1b6c:	ca 01       	movw	r24, r20
    1b6e:	8a df       	rcall	.-236    	; 0x1a84 <MQTTSerialize_connectLength>
    1b70:	7c 01       	movw	r14, r24
    1b72:	00 d1       	rcall	.+512    	; 0x1d74 <MQTTPacket_len>
    1b74:	a8 16       	cp	r10, r24
    1b76:	b9 06       	cpc	r11, r25
    1b78:	0c f4       	brge	.+2      	; 0x1b7c <MQTTSerialize_connect+0x36>
    1b7a:	9b c0       	rjmp	.+310    	; 0x1cb2 <MQTTSerialize_connect+0x16c>
    1b7c:	60 e1       	ldi	r22, 0x10	; 16
    1b7e:	ce 01       	movw	r24, r28
    1b80:	01 96       	adiw	r24, 0x01	; 1
    1b82:	07 d1       	rcall	.+526    	; 0x1d92 <writeChar>
    1b84:	b7 01       	movw	r22, r14
    1b86:	89 81       	ldd	r24, Y+1	; 0x01
    1b88:	9a 81       	ldd	r25, Y+2	; 0x02
    1b8a:	cd d0       	rcall	.+410    	; 0x1d26 <MQTTPacket_encode>
    1b8c:	29 81       	ldd	r18, Y+1	; 0x01
    1b8e:	3a 81       	ldd	r19, Y+2	; 0x02
    1b90:	82 0f       	add	r24, r18
    1b92:	93 1f       	adc	r25, r19
    1b94:	89 83       	std	Y+1, r24	; 0x01
    1b96:	9a 83       	std	Y+2, r25	; 0x02
    1b98:	f8 01       	movw	r30, r16
    1b9a:	86 81       	ldd	r24, Z+6	; 0x06
    1b9c:	84 30       	cpi	r24, 0x04	; 4
    1b9e:	39 f4       	brne	.+14     	; 0x1bae <MQTTSerialize_connect+0x68>
    1ba0:	60 e6       	ldi	r22, 0x60	; 96
    1ba2:	70 e2       	ldi	r23, 0x20	; 32
    1ba4:	ce 01       	movw	r24, r28
    1ba6:	01 96       	adiw	r24, 0x01	; 1
    1ba8:	1e d1       	rcall	.+572    	; 0x1de6 <writeCString>
    1baa:	64 e0       	ldi	r22, 0x04	; 4
    1bac:	06 c0       	rjmp	.+12     	; 0x1bba <MQTTSerialize_connect+0x74>
    1bae:	65 e6       	ldi	r22, 0x65	; 101
    1bb0:	70 e2       	ldi	r23, 0x20	; 32
    1bb2:	ce 01       	movw	r24, r28
    1bb4:	01 96       	adiw	r24, 0x01	; 1
    1bb6:	17 d1       	rcall	.+558    	; 0x1de6 <writeCString>
    1bb8:	63 e0       	ldi	r22, 0x03	; 3
    1bba:	ce 01       	movw	r24, r28
    1bbc:	01 96       	adiw	r24, 0x01	; 1
    1bbe:	e9 d0       	rcall	.+466    	; 0x1d92 <writeChar>
    1bc0:	f1 2c       	mov	r15, r1
    1bc2:	f8 01       	movw	r30, r16
    1bc4:	87 85       	ldd	r24, Z+15	; 0x0f
    1bc6:	80 fb       	bst	r24, 0
    1bc8:	f1 f8       	bld	r15, 1
    1bca:	81 e0       	ldi	r24, 0x01	; 1
    1bcc:	90 89       	ldd	r25, Z+16	; 0x10
    1bce:	91 11       	cpse	r25, r1
    1bd0:	01 c0       	rjmp	.+2      	; 0x1bd4 <MQTTSerialize_connect+0x8e>
    1bd2:	80 e0       	ldi	r24, 0x00	; 0
    1bd4:	80 fb       	bst	r24, 0
    1bd6:	f2 f8       	bld	r15, 2
    1bd8:	f2 fe       	sbrs	r15, 2
    1bda:	0d c0       	rjmp	.+26     	; 0x1bf6 <MQTTSerialize_connect+0xb0>
    1bdc:	f8 01       	movw	r30, r16
    1bde:	84 a1       	ldd	r24, Z+36	; 0x24
    1be0:	83 70       	andi	r24, 0x03	; 3
    1be2:	88 0f       	add	r24, r24
    1be4:	88 0f       	add	r24, r24
    1be6:	88 0f       	add	r24, r24
    1be8:	9f 2d       	mov	r25, r15
    1bea:	97 7e       	andi	r25, 0xE7	; 231
    1bec:	f9 2e       	mov	r15, r25
    1bee:	f8 2a       	or	r15, r24
    1bf0:	83 a1       	ldd	r24, Z+35	; 0x23
    1bf2:	80 fb       	bst	r24, 0
    1bf4:	f5 f8       	bld	r15, 5
    1bf6:	f8 01       	movw	r30, r16
    1bf8:	85 a1       	ldd	r24, Z+37	; 0x25
    1bfa:	96 a1       	ldd	r25, Z+38	; 0x26
    1bfc:	89 2b       	or	r24, r25
    1bfe:	21 f4       	brne	.+8      	; 0x1c08 <MQTTSerialize_connect+0xc2>
    1c00:	81 a5       	ldd	r24, Z+41	; 0x29
    1c02:	92 a5       	ldd	r25, Z+42	; 0x2a
    1c04:	89 2b       	or	r24, r25
    1c06:	11 f0       	breq	.+4      	; 0x1c0c <MQTTSerialize_connect+0xc6>
    1c08:	68 94       	set
    1c0a:	f7 f8       	bld	r15, 7
    1c0c:	f8 01       	movw	r30, r16
    1c0e:	83 a5       	ldd	r24, Z+43	; 0x2b
    1c10:	94 a5       	ldd	r25, Z+44	; 0x2c
    1c12:	89 2b       	or	r24, r25
    1c14:	21 f4       	brne	.+8      	; 0x1c1e <MQTTSerialize_connect+0xd8>
    1c16:	87 a5       	ldd	r24, Z+47	; 0x2f
    1c18:	90 a9       	ldd	r25, Z+48	; 0x30
    1c1a:	89 2b       	or	r24, r25
    1c1c:	11 f0       	breq	.+4      	; 0x1c22 <MQTTSerialize_connect+0xdc>
    1c1e:	68 94       	set
    1c20:	f6 f8       	bld	r15, 6
    1c22:	6f 2d       	mov	r22, r15
    1c24:	ce 01       	movw	r24, r28
    1c26:	01 96       	adiw	r24, 0x01	; 1
    1c28:	b4 d0       	rcall	.+360    	; 0x1d92 <writeChar>
    1c2a:	f8 01       	movw	r30, r16
    1c2c:	65 85       	ldd	r22, Z+13	; 0x0d
    1c2e:	76 85       	ldd	r23, Z+14	; 0x0e
    1c30:	ce 01       	movw	r24, r28
    1c32:	01 96       	adiw	r24, 0x01	; 1
    1c34:	b8 d0       	rcall	.+368    	; 0x1da6 <writeInt>
    1c36:	f8 01       	movw	r30, r16
    1c38:	27 81       	ldd	r18, Z+7	; 0x07
    1c3a:	30 85       	ldd	r19, Z+8	; 0x08
    1c3c:	41 85       	ldd	r20, Z+9	; 0x09
    1c3e:	52 85       	ldd	r21, Z+10	; 0x0a
    1c40:	63 85       	ldd	r22, Z+11	; 0x0b
    1c42:	74 85       	ldd	r23, Z+12	; 0x0c
    1c44:	ce 01       	movw	r24, r28
    1c46:	01 96       	adiw	r24, 0x01	; 1
    1c48:	f4 d0       	rcall	.+488    	; 0x1e32 <writeMQTTString>
    1c4a:	f8 01       	movw	r30, r16
    1c4c:	80 89       	ldd	r24, Z+16	; 0x10
    1c4e:	88 23       	and	r24, r24
    1c50:	99 f0       	breq	.+38     	; 0x1c78 <MQTTSerialize_connect+0x132>
    1c52:	27 89       	ldd	r18, Z+23	; 0x17
    1c54:	30 8d       	ldd	r19, Z+24	; 0x18
    1c56:	41 8d       	ldd	r20, Z+25	; 0x19
    1c58:	52 8d       	ldd	r21, Z+26	; 0x1a
    1c5a:	63 8d       	ldd	r22, Z+27	; 0x1b
    1c5c:	74 8d       	ldd	r23, Z+28	; 0x1c
    1c5e:	ce 01       	movw	r24, r28
    1c60:	01 96       	adiw	r24, 0x01	; 1
    1c62:	e7 d0       	rcall	.+462    	; 0x1e32 <writeMQTTString>
    1c64:	f8 01       	movw	r30, r16
    1c66:	25 8d       	ldd	r18, Z+29	; 0x1d
    1c68:	36 8d       	ldd	r19, Z+30	; 0x1e
    1c6a:	47 8d       	ldd	r20, Z+31	; 0x1f
    1c6c:	50 a1       	ldd	r21, Z+32	; 0x20
    1c6e:	61 a1       	ldd	r22, Z+33	; 0x21
    1c70:	72 a1       	ldd	r23, Z+34	; 0x22
    1c72:	ce 01       	movw	r24, r28
    1c74:	01 96       	adiw	r24, 0x01	; 1
    1c76:	dd d0       	rcall	.+442    	; 0x1e32 <writeMQTTString>
    1c78:	f7 fe       	sbrs	r15, 7
    1c7a:	0a c0       	rjmp	.+20     	; 0x1c90 <MQTTSerialize_connect+0x14a>
    1c7c:	f8 01       	movw	r30, r16
    1c7e:	25 a1       	ldd	r18, Z+37	; 0x25
    1c80:	36 a1       	ldd	r19, Z+38	; 0x26
    1c82:	47 a1       	ldd	r20, Z+39	; 0x27
    1c84:	50 a5       	ldd	r21, Z+40	; 0x28
    1c86:	61 a5       	ldd	r22, Z+41	; 0x29
    1c88:	72 a5       	ldd	r23, Z+42	; 0x2a
    1c8a:	ce 01       	movw	r24, r28
    1c8c:	01 96       	adiw	r24, 0x01	; 1
    1c8e:	d1 d0       	rcall	.+418    	; 0x1e32 <writeMQTTString>
    1c90:	f6 fe       	sbrs	r15, 6
    1c92:	0a c0       	rjmp	.+20     	; 0x1ca8 <MQTTSerialize_connect+0x162>
    1c94:	f8 01       	movw	r30, r16
    1c96:	23 a5       	ldd	r18, Z+43	; 0x2b
    1c98:	34 a5       	ldd	r19, Z+44	; 0x2c
    1c9a:	45 a5       	ldd	r20, Z+45	; 0x2d
    1c9c:	56 a5       	ldd	r21, Z+46	; 0x2e
    1c9e:	67 a5       	ldd	r22, Z+47	; 0x2f
    1ca0:	70 a9       	ldd	r23, Z+48	; 0x30
    1ca2:	ce 01       	movw	r24, r28
    1ca4:	01 96       	adiw	r24, 0x01	; 1
    1ca6:	c5 d0       	rcall	.+394    	; 0x1e32 <writeMQTTString>
    1ca8:	89 81       	ldd	r24, Y+1	; 0x01
    1caa:	9a 81       	ldd	r25, Y+2	; 0x02
    1cac:	8c 19       	sub	r24, r12
    1cae:	9d 09       	sbc	r25, r13
    1cb0:	02 c0       	rjmp	.+4      	; 0x1cb6 <MQTTSerialize_connect+0x170>
    1cb2:	8e ef       	ldi	r24, 0xFE	; 254
    1cb4:	9f ef       	ldi	r25, 0xFF	; 255
    1cb6:	0f 90       	pop	r0
    1cb8:	0f 90       	pop	r0
    1cba:	df 91       	pop	r29
    1cbc:	cf 91       	pop	r28
    1cbe:	1f 91       	pop	r17
    1cc0:	0f 91       	pop	r16
    1cc2:	ff 90       	pop	r15
    1cc4:	ef 90       	pop	r14
    1cc6:	df 90       	pop	r13
    1cc8:	cf 90       	pop	r12
    1cca:	bf 90       	pop	r11
    1ccc:	af 90       	pop	r10
    1cce:	08 95       	ret

00001cd0 <MQTTSerialize_zero>:
    1cd0:	0f 93       	push	r16
    1cd2:	1f 93       	push	r17
    1cd4:	cf 93       	push	r28
    1cd6:	df 93       	push	r29
    1cd8:	1f 92       	push	r1
    1cda:	1f 92       	push	r1
    1cdc:	cd b7       	in	r28, 0x3d	; 61
    1cde:	de b7       	in	r29, 0x3e	; 62
    1ce0:	89 83       	std	Y+1, r24	; 0x01
    1ce2:	9a 83       	std	Y+2, r25	; 0x02
    1ce4:	62 30       	cpi	r22, 0x02	; 2
    1ce6:	71 05       	cpc	r23, r1
    1ce8:	9c f0       	brlt	.+38     	; 0x1d10 <MQTTSerialize_zero+0x40>
    1cea:	64 2f       	mov	r22, r20
    1cec:	8c 01       	movw	r16, r24
    1cee:	62 95       	swap	r22
    1cf0:	60 7f       	andi	r22, 0xF0	; 240
    1cf2:	ce 01       	movw	r24, r28
    1cf4:	01 96       	adiw	r24, 0x01	; 1
    1cf6:	4d d0       	rcall	.+154    	; 0x1d92 <writeChar>
    1cf8:	60 e0       	ldi	r22, 0x00	; 0
    1cfa:	70 e0       	ldi	r23, 0x00	; 0
    1cfc:	89 81       	ldd	r24, Y+1	; 0x01
    1cfe:	9a 81       	ldd	r25, Y+2	; 0x02
    1d00:	12 d0       	rcall	.+36     	; 0x1d26 <MQTTPacket_encode>
    1d02:	29 81       	ldd	r18, Y+1	; 0x01
    1d04:	3a 81       	ldd	r19, Y+2	; 0x02
    1d06:	82 0f       	add	r24, r18
    1d08:	93 1f       	adc	r25, r19
    1d0a:	80 1b       	sub	r24, r16
    1d0c:	91 0b       	sbc	r25, r17
    1d0e:	02 c0       	rjmp	.+4      	; 0x1d14 <MQTTSerialize_zero+0x44>
    1d10:	8e ef       	ldi	r24, 0xFE	; 254
    1d12:	9f ef       	ldi	r25, 0xFF	; 255
    1d14:	0f 90       	pop	r0
    1d16:	0f 90       	pop	r0
    1d18:	df 91       	pop	r29
    1d1a:	cf 91       	pop	r28
    1d1c:	1f 91       	pop	r17
    1d1e:	0f 91       	pop	r16
    1d20:	08 95       	ret

00001d22 <MQTTSerialize_disconnect>:
    1d22:	4e e0       	ldi	r20, 0x0E	; 14
    1d24:	d5 cf       	rjmp	.-86     	; 0x1cd0 <MQTTSerialize_zero>

00001d26 <MQTTPacket_encode>:
    1d26:	0f 93       	push	r16
    1d28:	1f 93       	push	r17
    1d2a:	cf 93       	push	r28
    1d2c:	df 93       	push	r29
    1d2e:	9b 01       	movw	r18, r22
    1d30:	ec 01       	movw	r28, r24
    1d32:	e0 e0       	ldi	r30, 0x00	; 0
    1d34:	f0 e0       	ldi	r31, 0x00	; 0
    1d36:	00 e8       	ldi	r16, 0x80	; 128
    1d38:	10 e0       	ldi	r17, 0x00	; 0
    1d3a:	c9 01       	movw	r24, r18
    1d3c:	b8 01       	movw	r22, r16
    1d3e:	0e 94 3d 1d 	call	0x3a7a	; 0x3a7a <__divmodhi4>
    1d42:	98 2f       	mov	r25, r24
    1d44:	37 ff       	sbrs	r19, 7
    1d46:	02 c0       	rjmp	.+4      	; 0x1d4c <MQTTPacket_encode+0x26>
    1d48:	21 58       	subi	r18, 0x81	; 129
    1d4a:	3f 4f       	sbci	r19, 0xFF	; 255
    1d4c:	22 0f       	add	r18, r18
    1d4e:	23 2f       	mov	r18, r19
    1d50:	22 1f       	adc	r18, r18
    1d52:	33 0b       	sbc	r19, r19
    1d54:	12 16       	cp	r1, r18
    1d56:	13 06       	cpc	r1, r19
    1d58:	14 f4       	brge	.+4      	; 0x1d5e <MQTTPacket_encode+0x38>
    1d5a:	98 2f       	mov	r25, r24
    1d5c:	90 68       	ori	r25, 0x80	; 128
    1d5e:	31 96       	adiw	r30, 0x01	; 1
    1d60:	99 93       	st	Y+, r25
    1d62:	12 16       	cp	r1, r18
    1d64:	13 06       	cpc	r1, r19
    1d66:	4c f3       	brlt	.-46     	; 0x1d3a <MQTTPacket_encode+0x14>
    1d68:	cf 01       	movw	r24, r30
    1d6a:	df 91       	pop	r29
    1d6c:	cf 91       	pop	r28
    1d6e:	1f 91       	pop	r17
    1d70:	0f 91       	pop	r16
    1d72:	08 95       	ret

00001d74 <MQTTPacket_len>:
    1d74:	9c 01       	movw	r18, r24
    1d76:	2f 5f       	subi	r18, 0xFF	; 255
    1d78:	3f 4f       	sbci	r19, 0xFF	; 255
    1d7a:	20 38       	cpi	r18, 0x80	; 128
    1d7c:	31 05       	cpc	r19, r1
    1d7e:	14 f4       	brge	.+4      	; 0x1d84 <MQTTPacket_len+0x10>
    1d80:	02 96       	adiw	r24, 0x02	; 2
    1d82:	08 95       	ret
    1d84:	21 15       	cp	r18, r1
    1d86:	30 44       	sbci	r19, 0x40	; 64
    1d88:	14 f4       	brge	.+4      	; 0x1d8e <MQTTPacket_len+0x1a>
    1d8a:	03 96       	adiw	r24, 0x03	; 3
    1d8c:	08 95       	ret
    1d8e:	04 96       	adiw	r24, 0x04	; 4
    1d90:	08 95       	ret

00001d92 <writeChar>:
    1d92:	fc 01       	movw	r30, r24
    1d94:	a0 81       	ld	r26, Z
    1d96:	b1 81       	ldd	r27, Z+1	; 0x01
    1d98:	6c 93       	st	X, r22
    1d9a:	80 81       	ld	r24, Z
    1d9c:	91 81       	ldd	r25, Z+1	; 0x01
    1d9e:	01 96       	adiw	r24, 0x01	; 1
    1da0:	80 83       	st	Z, r24
    1da2:	91 83       	std	Z+1, r25	; 0x01
    1da4:	08 95       	ret

00001da6 <writeInt>:
    1da6:	cf 93       	push	r28
    1da8:	df 93       	push	r29
    1daa:	fc 01       	movw	r30, r24
    1dac:	cb 01       	movw	r24, r22
    1dae:	a0 81       	ld	r26, Z
    1db0:	b1 81       	ldd	r27, Z+1	; 0x01
    1db2:	9b 01       	movw	r18, r22
    1db4:	77 ff       	sbrs	r23, 7
    1db6:	02 c0       	rjmp	.+4      	; 0x1dbc <writeInt+0x16>
    1db8:	21 50       	subi	r18, 0x01	; 1
    1dba:	3f 4f       	sbci	r19, 0xFF	; 255
    1dbc:	3c 93       	st	X, r19
    1dbe:	c0 81       	ld	r28, Z
    1dc0:	d1 81       	ldd	r29, Z+1	; 0x01
    1dc2:	9e 01       	movw	r18, r28
    1dc4:	2f 5f       	subi	r18, 0xFF	; 255
    1dc6:	3f 4f       	sbci	r19, 0xFF	; 255
    1dc8:	20 83       	st	Z, r18
    1dca:	31 83       	std	Z+1, r19	; 0x01
    1dcc:	60 e0       	ldi	r22, 0x00	; 0
    1dce:	71 e0       	ldi	r23, 0x01	; 1
    1dd0:	0e 94 3d 1d 	call	0x3a7a	; 0x3a7a <__divmodhi4>
    1dd4:	89 83       	std	Y+1, r24	; 0x01
    1dd6:	80 81       	ld	r24, Z
    1dd8:	91 81       	ldd	r25, Z+1	; 0x01
    1dda:	01 96       	adiw	r24, 0x01	; 1
    1ddc:	80 83       	st	Z, r24
    1dde:	91 83       	std	Z+1, r25	; 0x01
    1de0:	df 91       	pop	r29
    1de2:	cf 91       	pop	r28
    1de4:	08 95       	ret

00001de6 <writeCString>:
    1de6:	ef 92       	push	r14
    1de8:	ff 92       	push	r15
    1dea:	0f 93       	push	r16
    1dec:	1f 93       	push	r17
    1dee:	cf 93       	push	r28
    1df0:	df 93       	push	r29
    1df2:	8c 01       	movw	r16, r24
    1df4:	7b 01       	movw	r14, r22
    1df6:	eb 01       	movw	r28, r22
    1df8:	09 90       	ld	r0, Y+
    1dfa:	00 20       	and	r0, r0
    1dfc:	e9 f7       	brne	.-6      	; 0x1df8 <writeCString+0x12>
    1dfe:	21 97       	sbiw	r28, 0x01	; 1
    1e00:	c6 1b       	sub	r28, r22
    1e02:	d7 0b       	sbc	r29, r23
    1e04:	be 01       	movw	r22, r28
    1e06:	cf df       	rcall	.-98     	; 0x1da6 <writeInt>
    1e08:	ae 01       	movw	r20, r28
    1e0a:	b7 01       	movw	r22, r14
    1e0c:	f8 01       	movw	r30, r16
    1e0e:	80 81       	ld	r24, Z
    1e10:	91 81       	ldd	r25, Z+1	; 0x01
    1e12:	0e 94 6a 1e 	call	0x3cd4	; 0x3cd4 <memcpy>
    1e16:	f8 01       	movw	r30, r16
    1e18:	80 81       	ld	r24, Z
    1e1a:	91 81       	ldd	r25, Z+1	; 0x01
    1e1c:	c8 0f       	add	r28, r24
    1e1e:	d9 1f       	adc	r29, r25
    1e20:	c0 83       	st	Z, r28
    1e22:	d1 83       	std	Z+1, r29	; 0x01
    1e24:	df 91       	pop	r29
    1e26:	cf 91       	pop	r28
    1e28:	1f 91       	pop	r17
    1e2a:	0f 91       	pop	r16
    1e2c:	ff 90       	pop	r15
    1e2e:	ef 90       	pop	r14
    1e30:	08 95       	ret

00001e32 <writeMQTTString>:
    1e32:	ef 92       	push	r14
    1e34:	ff 92       	push	r15
    1e36:	0f 93       	push	r16
    1e38:	1f 93       	push	r17
    1e3a:	cf 93       	push	r28
    1e3c:	df 93       	push	r29
    1e3e:	00 d0       	rcall	.+0      	; 0x1e40 <writeMQTTString+0xe>
    1e40:	00 d0       	rcall	.+0      	; 0x1e42 <writeMQTTString+0x10>
    1e42:	cd b7       	in	r28, 0x3d	; 61
    1e44:	de b7       	in	r29, 0x3e	; 62
    1e46:	29 83       	std	Y+1, r18	; 0x01
    1e48:	3a 83       	std	Y+2, r19	; 0x02
    1e4a:	4b 83       	std	Y+3, r20	; 0x03
    1e4c:	5c 83       	std	Y+4, r21	; 0x04
    1e4e:	6d 83       	std	Y+5, r22	; 0x05
    1e50:	7e 83       	std	Y+6, r23	; 0x06
    1e52:	eb 80       	ldd	r14, Y+3	; 0x03
    1e54:	fc 80       	ldd	r15, Y+4	; 0x04
    1e56:	1e 14       	cp	r1, r14
    1e58:	1f 04       	cpc	r1, r15
    1e5a:	e4 f4       	brge	.+56     	; 0x1e94 <writeMQTTString+0x62>
    1e5c:	8c 01       	movw	r16, r24
    1e5e:	b7 01       	movw	r22, r14
    1e60:	a2 df       	rcall	.-188    	; 0x1da6 <writeInt>
    1e62:	6d 81       	ldd	r22, Y+5	; 0x05
    1e64:	7e 81       	ldd	r23, Y+6	; 0x06
    1e66:	a7 01       	movw	r20, r14
    1e68:	f8 01       	movw	r30, r16
    1e6a:	80 81       	ld	r24, Z
    1e6c:	91 81       	ldd	r25, Z+1	; 0x01
    1e6e:	0e 94 6a 1e 	call	0x3cd4	; 0x3cd4 <memcpy>
    1e72:	f8 01       	movw	r30, r16
    1e74:	80 81       	ld	r24, Z
    1e76:	91 81       	ldd	r25, Z+1	; 0x01
    1e78:	e8 0e       	add	r14, r24
    1e7a:	f9 1e       	adc	r15, r25
    1e7c:	e0 82       	st	Z, r14
    1e7e:	f1 82       	std	Z+1, r15	; 0x01
    1e80:	26 96       	adiw	r28, 0x06	; 6
    1e82:	cd bf       	out	0x3d, r28	; 61
    1e84:	de bf       	out	0x3e, r29	; 62
    1e86:	df 91       	pop	r29
    1e88:	cf 91       	pop	r28
    1e8a:	1f 91       	pop	r17
    1e8c:	0f 91       	pop	r16
    1e8e:	ff 90       	pop	r15
    1e90:	ef 90       	pop	r14
    1e92:	08 95       	ret
    1e94:	69 81       	ldd	r22, Y+1	; 0x01
    1e96:	7a 81       	ldd	r23, Y+2	; 0x02
    1e98:	61 15       	cp	r22, r1
    1e9a:	71 05       	cpc	r23, r1
    1e9c:	51 f0       	breq	.+20     	; 0x1eb2 <writeMQTTString+0x80>
    1e9e:	26 96       	adiw	r28, 0x06	; 6
    1ea0:	cd bf       	out	0x3d, r28	; 61
    1ea2:	de bf       	out	0x3e, r29	; 62
    1ea4:	df 91       	pop	r29
    1ea6:	cf 91       	pop	r28
    1ea8:	1f 91       	pop	r17
    1eaa:	0f 91       	pop	r16
    1eac:	ff 90       	pop	r15
    1eae:	ef 90       	pop	r14
    1eb0:	9a cf       	rjmp	.-204    	; 0x1de6 <writeCString>
    1eb2:	60 e0       	ldi	r22, 0x00	; 0
    1eb4:	70 e0       	ldi	r23, 0x00	; 0
    1eb6:	26 96       	adiw	r28, 0x06	; 6
    1eb8:	cd bf       	out	0x3d, r28	; 61
    1eba:	de bf       	out	0x3e, r29	; 62
    1ebc:	df 91       	pop	r29
    1ebe:	cf 91       	pop	r28
    1ec0:	1f 91       	pop	r17
    1ec2:	0f 91       	pop	r16
    1ec4:	ff 90       	pop	r15
    1ec6:	ef 90       	pop	r14
    1ec8:	6e cf       	rjmp	.-292    	; 0x1da6 <writeInt>

00001eca <MQTTstrlen>:
    1eca:	cf 93       	push	r28
    1ecc:	df 93       	push	r29
    1ece:	00 d0       	rcall	.+0      	; 0x1ed0 <MQTTstrlen+0x6>
    1ed0:	00 d0       	rcall	.+0      	; 0x1ed2 <MQTTstrlen+0x8>
    1ed2:	cd b7       	in	r28, 0x3d	; 61
    1ed4:	de b7       	in	r29, 0x3e	; 62
    1ed6:	49 83       	std	Y+1, r20	; 0x01
    1ed8:	5a 83       	std	Y+2, r21	; 0x02
    1eda:	6b 83       	std	Y+3, r22	; 0x03
    1edc:	7c 83       	std	Y+4, r23	; 0x04
    1ede:	8d 83       	std	Y+5, r24	; 0x05
    1ee0:	9e 83       	std	Y+6, r25	; 0x06
    1ee2:	a9 81       	ldd	r26, Y+1	; 0x01
    1ee4:	ba 81       	ldd	r27, Y+2	; 0x02
    1ee6:	10 97       	sbiw	r26, 0x00	; 0
    1ee8:	49 f0       	breq	.+18     	; 0x1efc <MQTTstrlen+0x32>
    1eea:	fd 01       	movw	r30, r26
    1eec:	01 90       	ld	r0, Z+
    1eee:	00 20       	and	r0, r0
    1ef0:	e9 f7       	brne	.-6      	; 0x1eec <MQTTstrlen+0x22>
    1ef2:	31 97       	sbiw	r30, 0x01	; 1
    1ef4:	cf 01       	movw	r24, r30
    1ef6:	8a 1b       	sub	r24, r26
    1ef8:	9b 0b       	sbc	r25, r27
    1efa:	02 c0       	rjmp	.+4      	; 0x1f00 <MQTTstrlen+0x36>
    1efc:	8b 81       	ldd	r24, Y+3	; 0x03
    1efe:	9c 81       	ldd	r25, Y+4	; 0x04
    1f00:	26 96       	adiw	r28, 0x06	; 6
    1f02:	cd bf       	out	0x3d, r28	; 61
    1f04:	de bf       	out	0x3e, r29	; 62
    1f06:	df 91       	pop	r29
    1f08:	cf 91       	pop	r28
    1f0a:	08 95       	ret

00001f0c <MQTTSerialize_publishLength>:
    1f0c:	ef 92       	push	r14
    1f0e:	ff 92       	push	r15
    1f10:	0f 93       	push	r16
    1f12:	1f 93       	push	r17
    1f14:	cf 93       	push	r28
    1f16:	df 93       	push	r29
    1f18:	00 d0       	rcall	.+0      	; 0x1f1a <MQTTSerialize_publishLength+0xe>
    1f1a:	00 d0       	rcall	.+0      	; 0x1f1c <MQTTSerialize_publishLength+0x10>
    1f1c:	cd b7       	in	r28, 0x3d	; 61
    1f1e:	de b7       	in	r29, 0x3e	; 62
    1f20:	7c 01       	movw	r14, r24
    1f22:	f4 2f       	mov	r31, r20
    1f24:	e5 2f       	mov	r30, r21
    1f26:	cb 01       	movw	r24, r22
    1f28:	a9 01       	movw	r20, r18
    1f2a:	6f 2f       	mov	r22, r31
    1f2c:	7e 2f       	mov	r23, r30
    1f2e:	cd df       	rcall	.-102    	; 0x1eca <MQTTstrlen>
    1f30:	02 96       	adiw	r24, 0x02	; 2
    1f32:	80 0f       	add	r24, r16
    1f34:	91 1f       	adc	r25, r17
    1f36:	1e 14       	cp	r1, r14
    1f38:	1f 04       	cpc	r1, r15
    1f3a:	0c f4       	brge	.+2      	; 0x1f3e <MQTTSerialize_publishLength+0x32>
    1f3c:	02 96       	adiw	r24, 0x02	; 2
    1f3e:	26 96       	adiw	r28, 0x06	; 6
    1f40:	cd bf       	out	0x3d, r28	; 61
    1f42:	de bf       	out	0x3e, r29	; 62
    1f44:	df 91       	pop	r29
    1f46:	cf 91       	pop	r28
    1f48:	1f 91       	pop	r17
    1f4a:	0f 91       	pop	r16
    1f4c:	ff 90       	pop	r15
    1f4e:	ef 90       	pop	r14
    1f50:	08 95       	ret

00001f52 <MQTTSerialize_publish>:
    1f52:	2f 92       	push	r2
    1f54:	3f 92       	push	r3
    1f56:	4f 92       	push	r4
    1f58:	5f 92       	push	r5
    1f5a:	6f 92       	push	r6
    1f5c:	7f 92       	push	r7
    1f5e:	8f 92       	push	r8
    1f60:	9f 92       	push	r9
    1f62:	af 92       	push	r10
    1f64:	bf 92       	push	r11
    1f66:	cf 92       	push	r12
    1f68:	df 92       	push	r13
    1f6a:	ef 92       	push	r14
    1f6c:	ff 92       	push	r15
    1f6e:	0f 93       	push	r16
    1f70:	1f 93       	push	r17
    1f72:	cf 93       	push	r28
    1f74:	df 93       	push	r29
    1f76:	cd b7       	in	r28, 0x3d	; 61
    1f78:	de b7       	in	r29, 0x3e	; 62
    1f7a:	2a 97       	sbiw	r28, 0x0a	; 10
    1f7c:	cd bf       	out	0x3d, r28	; 61
    1f7e:	de bf       	out	0x3e, r29	; 62
    1f80:	2c 01       	movw	r4, r24
    1f82:	1b 01       	movw	r2, r22
    1f84:	49 87       	std	Y+9, r20	; 0x09
    1f86:	39 01       	movw	r6, r18
    1f88:	0a 87       	std	Y+10, r16	; 0x0a
    1f8a:	28 2d       	mov	r18, r8
    1f8c:	8b 82       	std	Y+3, r8	; 0x03
    1f8e:	39 2d       	mov	r19, r9
    1f90:	9c 82       	std	Y+4, r9	; 0x04
    1f92:	4a 2d       	mov	r20, r10
    1f94:	ad 82       	std	Y+5, r10	; 0x05
    1f96:	5b 2d       	mov	r21, r11
    1f98:	be 82       	std	Y+6, r11	; 0x06
    1f9a:	6c 2d       	mov	r22, r12
    1f9c:	cf 82       	std	Y+7, r12	; 0x07
    1f9e:	7d 2d       	mov	r23, r13
    1fa0:	d8 86       	std	Y+8, r13	; 0x08
    1fa2:	ca a0       	ldd	r12, Y+34	; 0x22
    1fa4:	db a0       	ldd	r13, Y+35	; 0x23
    1fa6:	89 83       	std	Y+1, r24	; 0x01
    1fa8:	9a 83       	std	Y+2, r25	; 0x02
    1faa:	86 01       	movw	r16, r12
    1fac:	c3 01       	movw	r24, r6
    1fae:	ae df       	rcall	.-164    	; 0x1f0c <MQTTSerialize_publishLength>
    1fb0:	8c 01       	movw	r16, r24
    1fb2:	e0 de       	rcall	.-576    	; 0x1d74 <MQTTPacket_len>
    1fb4:	28 16       	cp	r2, r24
    1fb6:	39 06       	cpc	r3, r25
    1fb8:	bc f1       	brlt	.+110    	; 0x2028 <MQTTSerialize_publish+0xd6>
    1fba:	60 e3       	ldi	r22, 0x30	; 48
    1fbc:	89 85       	ldd	r24, Y+9	; 0x09
    1fbe:	80 fb       	bst	r24, 0
    1fc0:	63 f9       	bld	r22, 3
    1fc2:	86 2d       	mov	r24, r6
    1fc4:	83 70       	andi	r24, 0x03	; 3
    1fc6:	88 0f       	add	r24, r24
    1fc8:	69 7f       	andi	r22, 0xF9	; 249
    1fca:	68 2b       	or	r22, r24
    1fcc:	8a 85       	ldd	r24, Y+10	; 0x0a
    1fce:	80 fb       	bst	r24, 0
    1fd0:	60 f9       	bld	r22, 0
    1fd2:	ce 01       	movw	r24, r28
    1fd4:	01 96       	adiw	r24, 0x01	; 1
    1fd6:	dd de       	rcall	.-582    	; 0x1d92 <writeChar>
    1fd8:	b8 01       	movw	r22, r16
    1fda:	89 81       	ldd	r24, Y+1	; 0x01
    1fdc:	9a 81       	ldd	r25, Y+2	; 0x02
    1fde:	a3 de       	rcall	.-698    	; 0x1d26 <MQTTPacket_encode>
    1fe0:	29 81       	ldd	r18, Y+1	; 0x01
    1fe2:	3a 81       	ldd	r19, Y+2	; 0x02
    1fe4:	82 0f       	add	r24, r18
    1fe6:	93 1f       	adc	r25, r19
    1fe8:	89 83       	std	Y+1, r24	; 0x01
    1fea:	9a 83       	std	Y+2, r25	; 0x02
    1fec:	2b 81       	ldd	r18, Y+3	; 0x03
    1fee:	3c 81       	ldd	r19, Y+4	; 0x04
    1ff0:	4d 81       	ldd	r20, Y+5	; 0x05
    1ff2:	5e 81       	ldd	r21, Y+6	; 0x06
    1ff4:	6f 81       	ldd	r22, Y+7	; 0x07
    1ff6:	78 85       	ldd	r23, Y+8	; 0x08
    1ff8:	ce 01       	movw	r24, r28
    1ffa:	01 96       	adiw	r24, 0x01	; 1
    1ffc:	1a df       	rcall	.-460    	; 0x1e32 <writeMQTTString>
    1ffe:	16 14       	cp	r1, r6
    2000:	17 04       	cpc	r1, r7
    2002:	24 f4       	brge	.+8      	; 0x200c <MQTTSerialize_publish+0xba>
    2004:	b7 01       	movw	r22, r14
    2006:	ce 01       	movw	r24, r28
    2008:	01 96       	adiw	r24, 0x01	; 1
    200a:	cd de       	rcall	.-614    	; 0x1da6 <writeInt>
    200c:	a6 01       	movw	r20, r12
    200e:	68 a1       	ldd	r22, Y+32	; 0x20
    2010:	79 a1       	ldd	r23, Y+33	; 0x21
    2012:	89 81       	ldd	r24, Y+1	; 0x01
    2014:	9a 81       	ldd	r25, Y+2	; 0x02
    2016:	0e 94 6a 1e 	call	0x3cd4	; 0x3cd4 <memcpy>
    201a:	89 81       	ldd	r24, Y+1	; 0x01
    201c:	9a 81       	ldd	r25, Y+2	; 0x02
    201e:	8c 0d       	add	r24, r12
    2020:	9d 1d       	adc	r25, r13
    2022:	84 19       	sub	r24, r4
    2024:	95 09       	sbc	r25, r5
    2026:	02 c0       	rjmp	.+4      	; 0x202c <MQTTSerialize_publish+0xda>
    2028:	8e ef       	ldi	r24, 0xFE	; 254
    202a:	9f ef       	ldi	r25, 0xFF	; 255
    202c:	2a 96       	adiw	r28, 0x0a	; 10
    202e:	cd bf       	out	0x3d, r28	; 61
    2030:	de bf       	out	0x3e, r29	; 62
    2032:	df 91       	pop	r29
    2034:	cf 91       	pop	r28
    2036:	1f 91       	pop	r17
    2038:	0f 91       	pop	r16
    203a:	ff 90       	pop	r15
    203c:	ef 90       	pop	r14
    203e:	df 90       	pop	r13
    2040:	cf 90       	pop	r12
    2042:	bf 90       	pop	r11
    2044:	af 90       	pop	r10
    2046:	9f 90       	pop	r9
    2048:	8f 90       	pop	r8
    204a:	7f 90       	pop	r7
    204c:	6f 90       	pop	r6
    204e:	5f 90       	pop	r5
    2050:	4f 90       	pop	r4
    2052:	3f 90       	pop	r3
    2054:	2f 90       	pop	r2
    2056:	08 95       	ret

00002058 <sysclk_init>:
    2058:	8f ef       	ldi	r24, 0xFF	; 255
    205a:	80 93 70 00 	sts	0x0070, r24	; 0x800070 <__TEXT_REGION_LENGTH__+0x700070>
    205e:	80 93 71 00 	sts	0x0071, r24	; 0x800071 <__TEXT_REGION_LENGTH__+0x700071>
    2062:	80 93 72 00 	sts	0x0072, r24	; 0x800072 <__TEXT_REGION_LENGTH__+0x700072>
    2066:	80 93 73 00 	sts	0x0073, r24	; 0x800073 <__TEXT_REGION_LENGTH__+0x700073>
    206a:	80 93 74 00 	sts	0x0074, r24	; 0x800074 <__TEXT_REGION_LENGTH__+0x700074>
    206e:	80 93 75 00 	sts	0x0075, r24	; 0x800075 <__TEXT_REGION_LENGTH__+0x700075>
    2072:	80 93 76 00 	sts	0x0076, r24	; 0x800076 <__TEXT_REGION_LENGTH__+0x700076>
    2076:	81 e0       	ldi	r24, 0x01	; 1
    2078:	80 93 43 00 	sts	0x0043, r24	; 0x800043 <__TEXT_REGION_LENGTH__+0x700043>
    207c:	08 95       	ret

0000207e <sysclk_enable_module>:
    207e:	cf 93       	push	r28
    2080:	df 93       	push	r29
    2082:	1f 92       	push	r1
    2084:	cd b7       	in	r28, 0x3d	; 61
    2086:	de b7       	in	r29, 0x3e	; 62
    2088:	9f b7       	in	r25, 0x3f	; 63
    208a:	99 83       	std	Y+1, r25	; 0x01
    208c:	f8 94       	cli
    208e:	99 81       	ldd	r25, Y+1	; 0x01
    2090:	e8 2f       	mov	r30, r24
    2092:	f0 e0       	ldi	r31, 0x00	; 0
    2094:	e0 59       	subi	r30, 0x90	; 144
    2096:	ff 4f       	sbci	r31, 0xFF	; 255
    2098:	60 95       	com	r22
    209a:	80 81       	ld	r24, Z
    209c:	68 23       	and	r22, r24
    209e:	60 83       	st	Z, r22
    20a0:	9f bf       	out	0x3f, r25	; 63
    20a2:	0f 90       	pop	r0
    20a4:	df 91       	pop	r29
    20a6:	cf 91       	pop	r28
    20a8:	08 95       	ret

000020aa <sysclk_disable_module>:
    20aa:	cf 93       	push	r28
    20ac:	df 93       	push	r29
    20ae:	1f 92       	push	r1
    20b0:	cd b7       	in	r28, 0x3d	; 61
    20b2:	de b7       	in	r29, 0x3e	; 62
    20b4:	9f b7       	in	r25, 0x3f	; 63
    20b6:	99 83       	std	Y+1, r25	; 0x01
    20b8:	f8 94       	cli
    20ba:	99 81       	ldd	r25, Y+1	; 0x01
    20bc:	e8 2f       	mov	r30, r24
    20be:	f0 e0       	ldi	r31, 0x00	; 0
    20c0:	e0 59       	subi	r30, 0x90	; 144
    20c2:	ff 4f       	sbci	r31, 0xFF	; 255
    20c4:	80 81       	ld	r24, Z
    20c6:	68 2b       	or	r22, r24
    20c8:	60 83       	st	Z, r22
    20ca:	9f bf       	out	0x3f, r25	; 63
    20cc:	0f 90       	pop	r0
    20ce:	df 91       	pop	r29
    20d0:	cf 91       	pop	r28
    20d2:	08 95       	ret

000020d4 <ioport_configure_port_pin>:
    20d4:	cf 93       	push	r28
    20d6:	df 93       	push	r29
    20d8:	fc 01       	movw	r30, r24
    20da:	dc 01       	movw	r26, r24
    20dc:	80 e0       	ldi	r24, 0x00	; 0
    20de:	90 e0       	ldi	r25, 0x00	; 0
    20e0:	26 2f       	mov	r18, r22
    20e2:	30 e0       	ldi	r19, 0x00	; 0
    20e4:	e9 01       	movw	r28, r18
    20e6:	08 2e       	mov	r0, r24
    20e8:	02 c0       	rjmp	.+4      	; 0x20ee <ioport_configure_port_pin+0x1a>
    20ea:	d5 95       	asr	r29
    20ec:	c7 95       	ror	r28
    20ee:	0a 94       	dec	r0
    20f0:	e2 f7       	brpl	.-8      	; 0x20ea <ioport_configure_port_pin+0x16>
    20f2:	c0 ff       	sbrs	r28, 0
    20f4:	03 c0       	rjmp	.+6      	; 0x20fc <ioport_configure_port_pin+0x28>
    20f6:	50 96       	adiw	r26, 0x10	; 16
    20f8:	5c 93       	st	X, r21
    20fa:	50 97       	sbiw	r26, 0x10	; 16
    20fc:	01 96       	adiw	r24, 0x01	; 1
    20fe:	11 96       	adiw	r26, 0x01	; 1
    2100:	88 30       	cpi	r24, 0x08	; 8
    2102:	91 05       	cpc	r25, r1
    2104:	79 f7       	brne	.-34     	; 0x20e4 <ioport_configure_port_pin+0x10>
    2106:	40 ff       	sbrs	r20, 0
    2108:	07 c0       	rjmp	.+14     	; 0x2118 <ioport_configure_port_pin+0x44>
    210a:	41 ff       	sbrs	r20, 1
    210c:	02 c0       	rjmp	.+4      	; 0x2112 <ioport_configure_port_pin+0x3e>
    210e:	65 83       	std	Z+5, r22	; 0x05
    2110:	01 c0       	rjmp	.+2      	; 0x2114 <ioport_configure_port_pin+0x40>
    2112:	66 83       	std	Z+6, r22	; 0x06
    2114:	61 83       	std	Z+1, r22	; 0x01
    2116:	01 c0       	rjmp	.+2      	; 0x211a <ioport_configure_port_pin+0x46>
    2118:	62 83       	std	Z+2, r22	; 0x02
    211a:	df 91       	pop	r29
    211c:	cf 91       	pop	r28
    211e:	08 95       	ret

00002120 <board_init>:
    2120:	43 e0       	ldi	r20, 0x03	; 3
    2122:	50 e0       	ldi	r21, 0x00	; 0
    2124:	68 e0       	ldi	r22, 0x08	; 8
    2126:	80 ec       	ldi	r24, 0xC0	; 192
    2128:	97 e0       	ldi	r25, 0x07	; 7
    212a:	d4 df       	rcall	.-88     	; 0x20d4 <ioport_configure_port_pin>
    212c:	40 e0       	ldi	r20, 0x00	; 0
    212e:	58 e1       	ldi	r21, 0x18	; 24
    2130:	64 e0       	ldi	r22, 0x04	; 4
    2132:	80 ec       	ldi	r24, 0xC0	; 192
    2134:	97 e0       	ldi	r25, 0x07	; 7
    2136:	ce df       	rcall	.-100    	; 0x20d4 <ioport_configure_port_pin>
    2138:	43 e0       	ldi	r20, 0x03	; 3
    213a:	50 e0       	ldi	r21, 0x00	; 0
    213c:	68 e0       	ldi	r22, 0x08	; 8
    213e:	80 e8       	ldi	r24, 0x80	; 128
    2140:	96 e0       	ldi	r25, 0x06	; 6
    2142:	c8 df       	rcall	.-112    	; 0x20d4 <ioport_configure_port_pin>
    2144:	40 e0       	ldi	r20, 0x00	; 0
    2146:	50 e0       	ldi	r21, 0x00	; 0
    2148:	64 e0       	ldi	r22, 0x04	; 4
    214a:	80 e8       	ldi	r24, 0x80	; 128
    214c:	96 e0       	ldi	r25, 0x06	; 6
    214e:	c2 df       	rcall	.-124    	; 0x20d4 <ioport_configure_port_pin>
    2150:	43 e0       	ldi	r20, 0x03	; 3
    2152:	50 e0       	ldi	r21, 0x00	; 0
    2154:	68 e0       	ldi	r22, 0x08	; 8
    2156:	80 e4       	ldi	r24, 0x40	; 64
    2158:	96 e0       	ldi	r25, 0x06	; 6
    215a:	bc df       	rcall	.-136    	; 0x20d4 <ioport_configure_port_pin>
    215c:	40 e0       	ldi	r20, 0x00	; 0
    215e:	50 e0       	ldi	r21, 0x00	; 0
    2160:	64 e0       	ldi	r22, 0x04	; 4
    2162:	80 e4       	ldi	r24, 0x40	; 64
    2164:	96 e0       	ldi	r25, 0x06	; 6
    2166:	b6 cf       	rjmp	.-148    	; 0x20d4 <ioport_configure_port_pin>

00002168 <nvm_read_byte>:
#endif

#ifndef __DOXYGEN__
	PUBLIC_FUNCTION(nvm_read_byte)
#if defined(__GNUC__)
	lds r20, NVM_CMD          ; Store NVM command register
    2168:	40 91 ca 01 	lds	r20, 0x01CA	; 0x8001ca <__TEXT_REGION_LENGTH__+0x7001ca>
	mov ZL, r22               ; Load byte index into low byte of Z.
    216c:	e6 2f       	mov	r30, r22
	mov ZH, r23               ; Load high byte into Z.
    216e:	f7 2f       	mov	r31, r23
	sts NVM_CMD, r24          ; Load prepared command into NVM Command register.
    2170:	80 93 ca 01 	sts	0x01CA, r24	; 0x8001ca <__TEXT_REGION_LENGTH__+0x7001ca>
	lpm r24, Z                ; Perform an LPM to read out byte
    2174:	84 91       	lpm	r24, Z
	sts NVM_CMD, r20          ; Restore NVM command register
    2176:	40 93 ca 01 	sts	0x01CA, r20	; 0x8001ca <__TEXT_REGION_LENGTH__+0x7001ca>
	sts NVM_CMD, r16          ; Load prepared command into NVM Command register.
	lpm r16, Z                ; Perform an LPM to read out byte
	sts NVM_CMD, r20          ; Restore NVM command register
#endif

	ret
    217a:	08 95       	ret

0000217c <sysclk_enable_peripheral_clock>:
    217c:	00 97       	sbiw	r24, 0x00	; 0
    217e:	09 f4       	brne	.+2      	; 0x2182 <sysclk_enable_peripheral_clock+0x6>
    2180:	ef c0       	rjmp	.+478    	; 0x2360 <sysclk_enable_peripheral_clock+0x1e4>
    2182:	80 3c       	cpi	r24, 0xC0	; 192
    2184:	91 05       	cpc	r25, r1
    2186:	11 f4       	brne	.+4      	; 0x218c <sysclk_enable_peripheral_clock+0x10>
    2188:	60 e1       	ldi	r22, 0x10	; 16
    218a:	05 c0       	rjmp	.+10     	; 0x2196 <sysclk_enable_peripheral_clock+0x1a>
    218c:	80 34       	cpi	r24, 0x40	; 64
    218e:	24 e0       	ldi	r18, 0x04	; 4
    2190:	92 07       	cpc	r25, r18
    2192:	19 f4       	brne	.+6      	; 0x219a <sysclk_enable_peripheral_clock+0x1e>
    2194:	68 e0       	ldi	r22, 0x08	; 8
    2196:	80 e0       	ldi	r24, 0x00	; 0
    2198:	e2 c0       	rjmp	.+452    	; 0x235e <sysclk_enable_peripheral_clock+0x1e2>
    219a:	81 15       	cp	r24, r1
    219c:	24 e0       	ldi	r18, 0x04	; 4
    219e:	92 07       	cpc	r25, r18
    21a0:	11 f4       	brne	.+4      	; 0x21a6 <sysclk_enable_peripheral_clock+0x2a>
    21a2:	64 e0       	ldi	r22, 0x04	; 4
    21a4:	f8 cf       	rjmp	.-16     	; 0x2196 <sysclk_enable_peripheral_clock+0x1a>
    21a6:	80 38       	cpi	r24, 0x80	; 128
    21a8:	21 e0       	ldi	r18, 0x01	; 1
    21aa:	92 07       	cpc	r25, r18
    21ac:	11 f4       	brne	.+4      	; 0x21b2 <sysclk_enable_peripheral_clock+0x36>
    21ae:	62 e0       	ldi	r22, 0x02	; 2
    21b0:	f2 cf       	rjmp	.-28     	; 0x2196 <sysclk_enable_peripheral_clock+0x1a>
    21b2:	81 15       	cp	r24, r1
    21b4:	21 e0       	ldi	r18, 0x01	; 1
    21b6:	92 07       	cpc	r25, r18
    21b8:	11 f4       	brne	.+4      	; 0x21be <sysclk_enable_peripheral_clock+0x42>
    21ba:	61 e0       	ldi	r22, 0x01	; 1
    21bc:	ec cf       	rjmp	.-40     	; 0x2196 <sysclk_enable_peripheral_clock+0x1a>
    21be:	80 38       	cpi	r24, 0x80	; 128
    21c0:	23 e0       	ldi	r18, 0x03	; 3
    21c2:	92 07       	cpc	r25, r18
    21c4:	11 f4       	brne	.+4      	; 0x21ca <sysclk_enable_peripheral_clock+0x4e>
    21c6:	61 e0       	ldi	r22, 0x01	; 1
    21c8:	17 c0       	rjmp	.+46     	; 0x21f8 <sysclk_enable_peripheral_clock+0x7c>
    21ca:	80 39       	cpi	r24, 0x90	; 144
    21cc:	23 e0       	ldi	r18, 0x03	; 3
    21ce:	92 07       	cpc	r25, r18
    21d0:	11 f4       	brne	.+4      	; 0x21d6 <sysclk_enable_peripheral_clock+0x5a>
    21d2:	61 e0       	ldi	r22, 0x01	; 1
    21d4:	18 c0       	rjmp	.+48     	; 0x2206 <sysclk_enable_peripheral_clock+0x8a>
    21d6:	81 15       	cp	r24, r1
    21d8:	22 e0       	ldi	r18, 0x02	; 2
    21da:	92 07       	cpc	r25, r18
    21dc:	11 f4       	brne	.+4      	; 0x21e2 <sysclk_enable_peripheral_clock+0x66>
    21de:	62 e0       	ldi	r22, 0x02	; 2
    21e0:	0b c0       	rjmp	.+22     	; 0x21f8 <sysclk_enable_peripheral_clock+0x7c>
    21e2:	80 34       	cpi	r24, 0x40	; 64
    21e4:	22 e0       	ldi	r18, 0x02	; 2
    21e6:	92 07       	cpc	r25, r18
    21e8:	11 f4       	brne	.+4      	; 0x21ee <sysclk_enable_peripheral_clock+0x72>
    21ea:	62 e0       	ldi	r22, 0x02	; 2
    21ec:	0c c0       	rjmp	.+24     	; 0x2206 <sysclk_enable_peripheral_clock+0x8a>
    21ee:	81 15       	cp	r24, r1
    21f0:	23 e0       	ldi	r18, 0x03	; 3
    21f2:	92 07       	cpc	r25, r18
    21f4:	19 f4       	brne	.+6      	; 0x21fc <sysclk_enable_peripheral_clock+0x80>
    21f6:	64 e0       	ldi	r22, 0x04	; 4
    21f8:	81 e0       	ldi	r24, 0x01	; 1
    21fa:	b1 c0       	rjmp	.+354    	; 0x235e <sysclk_enable_peripheral_clock+0x1e2>
    21fc:	80 32       	cpi	r24, 0x20	; 32
    21fe:	23 e0       	ldi	r18, 0x03	; 3
    2200:	92 07       	cpc	r25, r18
    2202:	19 f4       	brne	.+6      	; 0x220a <sysclk_enable_peripheral_clock+0x8e>
    2204:	64 e0       	ldi	r22, 0x04	; 4
    2206:	82 e0       	ldi	r24, 0x02	; 2
    2208:	aa c0       	rjmp	.+340    	; 0x235e <sysclk_enable_peripheral_clock+0x1e2>
    220a:	81 15       	cp	r24, r1
    220c:	28 e0       	ldi	r18, 0x08	; 8
    220e:	92 07       	cpc	r25, r18
    2210:	11 f4       	brne	.+4      	; 0x2216 <sysclk_enable_peripheral_clock+0x9a>
    2212:	61 e0       	ldi	r22, 0x01	; 1
    2214:	8f c0       	rjmp	.+286    	; 0x2334 <sysclk_enable_peripheral_clock+0x1b8>
    2216:	81 15       	cp	r24, r1
    2218:	29 e0       	ldi	r18, 0x09	; 9
    221a:	92 07       	cpc	r25, r18
    221c:	11 f4       	brne	.+4      	; 0x2222 <sysclk_enable_peripheral_clock+0xa6>
    221e:	61 e0       	ldi	r22, 0x01	; 1
    2220:	90 c0       	rjmp	.+288    	; 0x2342 <sysclk_enable_peripheral_clock+0x1c6>
    2222:	81 15       	cp	r24, r1
    2224:	2a e0       	ldi	r18, 0x0A	; 10
    2226:	92 07       	cpc	r25, r18
    2228:	11 f4       	brne	.+4      	; 0x222e <sysclk_enable_peripheral_clock+0xb2>
    222a:	61 e0       	ldi	r22, 0x01	; 1
    222c:	91 c0       	rjmp	.+290    	; 0x2350 <sysclk_enable_peripheral_clock+0x1d4>
    222e:	81 15       	cp	r24, r1
    2230:	2b e0       	ldi	r18, 0x0B	; 11
    2232:	92 07       	cpc	r25, r18
    2234:	11 f4       	brne	.+4      	; 0x223a <sysclk_enable_peripheral_clock+0xbe>
    2236:	61 e0       	ldi	r22, 0x01	; 1
    2238:	91 c0       	rjmp	.+290    	; 0x235c <sysclk_enable_peripheral_clock+0x1e0>
    223a:	80 34       	cpi	r24, 0x40	; 64
    223c:	28 e0       	ldi	r18, 0x08	; 8
    223e:	92 07       	cpc	r25, r18
    2240:	11 f4       	brne	.+4      	; 0x2246 <sysclk_enable_peripheral_clock+0xca>
    2242:	62 e0       	ldi	r22, 0x02	; 2
    2244:	77 c0       	rjmp	.+238    	; 0x2334 <sysclk_enable_peripheral_clock+0x1b8>
    2246:	80 34       	cpi	r24, 0x40	; 64
    2248:	29 e0       	ldi	r18, 0x09	; 9
    224a:	92 07       	cpc	r25, r18
    224c:	11 f4       	brne	.+4      	; 0x2252 <sysclk_enable_peripheral_clock+0xd6>
    224e:	62 e0       	ldi	r22, 0x02	; 2
    2250:	78 c0       	rjmp	.+240    	; 0x2342 <sysclk_enable_peripheral_clock+0x1c6>
    2252:	80 34       	cpi	r24, 0x40	; 64
    2254:	2a e0       	ldi	r18, 0x0A	; 10
    2256:	92 07       	cpc	r25, r18
    2258:	11 f4       	brne	.+4      	; 0x225e <sysclk_enable_peripheral_clock+0xe2>
    225a:	62 e0       	ldi	r22, 0x02	; 2
    225c:	79 c0       	rjmp	.+242    	; 0x2350 <sysclk_enable_peripheral_clock+0x1d4>
    225e:	80 34       	cpi	r24, 0x40	; 64
    2260:	2b e0       	ldi	r18, 0x0B	; 11
    2262:	92 07       	cpc	r25, r18
    2264:	11 f4       	brne	.+4      	; 0x226a <sysclk_enable_peripheral_clock+0xee>
    2266:	62 e0       	ldi	r22, 0x02	; 2
    2268:	79 c0       	rjmp	.+242    	; 0x235c <sysclk_enable_peripheral_clock+0x1e0>
    226a:	80 39       	cpi	r24, 0x90	; 144
    226c:	28 e0       	ldi	r18, 0x08	; 8
    226e:	92 07       	cpc	r25, r18
    2270:	11 f4       	brne	.+4      	; 0x2276 <sysclk_enable_peripheral_clock+0xfa>
    2272:	64 e0       	ldi	r22, 0x04	; 4
    2274:	5f c0       	rjmp	.+190    	; 0x2334 <sysclk_enable_peripheral_clock+0x1b8>
    2276:	80 39       	cpi	r24, 0x90	; 144
    2278:	29 e0       	ldi	r18, 0x09	; 9
    227a:	92 07       	cpc	r25, r18
    227c:	11 f4       	brne	.+4      	; 0x2282 <sysclk_enable_peripheral_clock+0x106>
    227e:	64 e0       	ldi	r22, 0x04	; 4
    2280:	60 c0       	rjmp	.+192    	; 0x2342 <sysclk_enable_peripheral_clock+0x1c6>
    2282:	80 39       	cpi	r24, 0x90	; 144
    2284:	2a e0       	ldi	r18, 0x0A	; 10
    2286:	92 07       	cpc	r25, r18
    2288:	11 f4       	brne	.+4      	; 0x228e <sysclk_enable_peripheral_clock+0x112>
    228a:	64 e0       	ldi	r22, 0x04	; 4
    228c:	61 c0       	rjmp	.+194    	; 0x2350 <sysclk_enable_peripheral_clock+0x1d4>
    228e:	80 39       	cpi	r24, 0x90	; 144
    2290:	2b e0       	ldi	r18, 0x0B	; 11
    2292:	92 07       	cpc	r25, r18
    2294:	11 f4       	brne	.+4      	; 0x229a <sysclk_enable_peripheral_clock+0x11e>
    2296:	64 e0       	ldi	r22, 0x04	; 4
    2298:	61 c0       	rjmp	.+194    	; 0x235c <sysclk_enable_peripheral_clock+0x1e0>
    229a:	80 3c       	cpi	r24, 0xC0	; 192
    229c:	28 e0       	ldi	r18, 0x08	; 8
    229e:	92 07       	cpc	r25, r18
    22a0:	11 f4       	brne	.+4      	; 0x22a6 <sysclk_enable_peripheral_clock+0x12a>
    22a2:	68 e0       	ldi	r22, 0x08	; 8
    22a4:	47 c0       	rjmp	.+142    	; 0x2334 <sysclk_enable_peripheral_clock+0x1b8>
    22a6:	80 3c       	cpi	r24, 0xC0	; 192
    22a8:	29 e0       	ldi	r18, 0x09	; 9
    22aa:	92 07       	cpc	r25, r18
    22ac:	11 f4       	brne	.+4      	; 0x22b2 <sysclk_enable_peripheral_clock+0x136>
    22ae:	68 e0       	ldi	r22, 0x08	; 8
    22b0:	48 c0       	rjmp	.+144    	; 0x2342 <sysclk_enable_peripheral_clock+0x1c6>
    22b2:	80 3c       	cpi	r24, 0xC0	; 192
    22b4:	2a e0       	ldi	r18, 0x0A	; 10
    22b6:	92 07       	cpc	r25, r18
    22b8:	11 f4       	brne	.+4      	; 0x22be <sysclk_enable_peripheral_clock+0x142>
    22ba:	68 e0       	ldi	r22, 0x08	; 8
    22bc:	49 c0       	rjmp	.+146    	; 0x2350 <sysclk_enable_peripheral_clock+0x1d4>
    22be:	80 3c       	cpi	r24, 0xC0	; 192
    22c0:	2b e0       	ldi	r18, 0x0B	; 11
    22c2:	92 07       	cpc	r25, r18
    22c4:	11 f4       	brne	.+4      	; 0x22ca <sysclk_enable_peripheral_clock+0x14e>
    22c6:	68 e0       	ldi	r22, 0x08	; 8
    22c8:	49 c0       	rjmp	.+146    	; 0x235c <sysclk_enable_peripheral_clock+0x1e0>
    22ca:	80 3a       	cpi	r24, 0xA0	; 160
    22cc:	28 e0       	ldi	r18, 0x08	; 8
    22ce:	92 07       	cpc	r25, r18
    22d0:	11 f4       	brne	.+4      	; 0x22d6 <sysclk_enable_peripheral_clock+0x15a>
    22d2:	60 e1       	ldi	r22, 0x10	; 16
    22d4:	2f c0       	rjmp	.+94     	; 0x2334 <sysclk_enable_peripheral_clock+0x1b8>
    22d6:	80 3a       	cpi	r24, 0xA0	; 160
    22d8:	29 e0       	ldi	r18, 0x09	; 9
    22da:	92 07       	cpc	r25, r18
    22dc:	11 f4       	brne	.+4      	; 0x22e2 <sysclk_enable_peripheral_clock+0x166>
    22de:	60 e1       	ldi	r22, 0x10	; 16
    22e0:	30 c0       	rjmp	.+96     	; 0x2342 <sysclk_enable_peripheral_clock+0x1c6>
    22e2:	80 3a       	cpi	r24, 0xA0	; 160
    22e4:	2a e0       	ldi	r18, 0x0A	; 10
    22e6:	92 07       	cpc	r25, r18
    22e8:	11 f4       	brne	.+4      	; 0x22ee <sysclk_enable_peripheral_clock+0x172>
    22ea:	60 e1       	ldi	r22, 0x10	; 16
    22ec:	31 c0       	rjmp	.+98     	; 0x2350 <sysclk_enable_peripheral_clock+0x1d4>
    22ee:	80 3a       	cpi	r24, 0xA0	; 160
    22f0:	2b e0       	ldi	r18, 0x0B	; 11
    22f2:	92 07       	cpc	r25, r18
    22f4:	11 f4       	brne	.+4      	; 0x22fa <sysclk_enable_peripheral_clock+0x17e>
    22f6:	60 e1       	ldi	r22, 0x10	; 16
    22f8:	31 c0       	rjmp	.+98     	; 0x235c <sysclk_enable_peripheral_clock+0x1e0>
    22fa:	80 3b       	cpi	r24, 0xB0	; 176
    22fc:	28 e0       	ldi	r18, 0x08	; 8
    22fe:	92 07       	cpc	r25, r18
    2300:	11 f4       	brne	.+4      	; 0x2306 <sysclk_enable_peripheral_clock+0x18a>
    2302:	60 e2       	ldi	r22, 0x20	; 32
    2304:	17 c0       	rjmp	.+46     	; 0x2334 <sysclk_enable_peripheral_clock+0x1b8>
    2306:	80 3b       	cpi	r24, 0xB0	; 176
    2308:	29 e0       	ldi	r18, 0x09	; 9
    230a:	92 07       	cpc	r25, r18
    230c:	11 f4       	brne	.+4      	; 0x2312 <sysclk_enable_peripheral_clock+0x196>
    230e:	60 e2       	ldi	r22, 0x20	; 32
    2310:	18 c0       	rjmp	.+48     	; 0x2342 <sysclk_enable_peripheral_clock+0x1c6>
    2312:	80 3b       	cpi	r24, 0xB0	; 176
    2314:	2a e0       	ldi	r18, 0x0A	; 10
    2316:	92 07       	cpc	r25, r18
    2318:	11 f4       	brne	.+4      	; 0x231e <sysclk_enable_peripheral_clock+0x1a2>
    231a:	60 e2       	ldi	r22, 0x20	; 32
    231c:	19 c0       	rjmp	.+50     	; 0x2350 <sysclk_enable_peripheral_clock+0x1d4>
    231e:	80 3b       	cpi	r24, 0xB0	; 176
    2320:	2b e0       	ldi	r18, 0x0B	; 11
    2322:	92 07       	cpc	r25, r18
    2324:	11 f4       	brne	.+4      	; 0x232a <sysclk_enable_peripheral_clock+0x1ae>
    2326:	60 e2       	ldi	r22, 0x20	; 32
    2328:	19 c0       	rjmp	.+50     	; 0x235c <sysclk_enable_peripheral_clock+0x1e0>
    232a:	80 38       	cpi	r24, 0x80	; 128
    232c:	24 e0       	ldi	r18, 0x04	; 4
    232e:	92 07       	cpc	r25, r18
    2330:	19 f4       	brne	.+6      	; 0x2338 <sysclk_enable_peripheral_clock+0x1bc>
    2332:	60 e4       	ldi	r22, 0x40	; 64
    2334:	83 e0       	ldi	r24, 0x03	; 3
    2336:	13 c0       	rjmp	.+38     	; 0x235e <sysclk_enable_peripheral_clock+0x1e2>
    2338:	80 39       	cpi	r24, 0x90	; 144
    233a:	24 e0       	ldi	r18, 0x04	; 4
    233c:	92 07       	cpc	r25, r18
    233e:	19 f4       	brne	.+6      	; 0x2346 <sysclk_enable_peripheral_clock+0x1ca>
    2340:	60 e4       	ldi	r22, 0x40	; 64
    2342:	84 e0       	ldi	r24, 0x04	; 4
    2344:	0c c0       	rjmp	.+24     	; 0x235e <sysclk_enable_peripheral_clock+0x1e2>
    2346:	80 3a       	cpi	r24, 0xA0	; 160
    2348:	24 e0       	ldi	r18, 0x04	; 4
    234a:	92 07       	cpc	r25, r18
    234c:	19 f4       	brne	.+6      	; 0x2354 <sysclk_enable_peripheral_clock+0x1d8>
    234e:	60 e4       	ldi	r22, 0x40	; 64
    2350:	85 e0       	ldi	r24, 0x05	; 5
    2352:	05 c0       	rjmp	.+10     	; 0x235e <sysclk_enable_peripheral_clock+0x1e2>
    2354:	80 3b       	cpi	r24, 0xB0	; 176
    2356:	94 40       	sbci	r25, 0x04	; 4
    2358:	19 f4       	brne	.+6      	; 0x2360 <sysclk_enable_peripheral_clock+0x1e4>
    235a:	60 e4       	ldi	r22, 0x40	; 64
    235c:	86 e0       	ldi	r24, 0x06	; 6
    235e:	8f ce       	rjmp	.-738    	; 0x207e <sysclk_enable_module>
    2360:	08 95       	ret

00002362 <usart_putchar>:
    2362:	fc 01       	movw	r30, r24
    2364:	21 81       	ldd	r18, Z+1	; 0x01
    2366:	25 ff       	sbrs	r18, 5
    2368:	fc cf       	rjmp	.-8      	; 0x2362 <usart_putchar>
    236a:	60 83       	st	Z, r22
    236c:	80 e0       	ldi	r24, 0x00	; 0
    236e:	90 e0       	ldi	r25, 0x00	; 0
    2370:	08 95       	ret

00002372 <usart_set_baudrate>:
    2372:	8f 92       	push	r8
    2374:	9f 92       	push	r9
    2376:	af 92       	push	r10
    2378:	bf 92       	push	r11
    237a:	cf 92       	push	r12
    237c:	df 92       	push	r13
    237e:	ef 92       	push	r14
    2380:	ff 92       	push	r15
    2382:	0f 93       	push	r16
    2384:	1f 93       	push	r17
    2386:	cf 93       	push	r28
    2388:	df 93       	push	r29
    238a:	ec 01       	movw	r28, r24
    238c:	6a 01       	movw	r12, r20
    238e:	7b 01       	movw	r14, r22
    2390:	48 01       	movw	r8, r16
    2392:	59 01       	movw	r10, r18
    2394:	8c 81       	ldd	r24, Y+4	; 0x04
    2396:	b9 01       	movw	r22, r18
    2398:	a8 01       	movw	r20, r16
    239a:	82 ff       	sbrs	r24, 2
    239c:	11 c0       	rjmp	.+34     	; 0x23c0 <usart_set_baudrate+0x4e>
    239e:	33 e0       	ldi	r19, 0x03	; 3
    23a0:	76 95       	lsr	r23
    23a2:	67 95       	ror	r22
    23a4:	57 95       	ror	r21
    23a6:	47 95       	ror	r20
    23a8:	3a 95       	dec	r19
    23aa:	d1 f7       	brne	.-12     	; 0x23a0 <usart_set_baudrate+0x2e>
    23ac:	d5 01       	movw	r26, r10
    23ae:	c4 01       	movw	r24, r8
    23b0:	e6 e1       	ldi	r30, 0x16	; 22
    23b2:	b6 95       	lsr	r27
    23b4:	a7 95       	ror	r26
    23b6:	97 95       	ror	r25
    23b8:	87 95       	ror	r24
    23ba:	ea 95       	dec	r30
    23bc:	d1 f7       	brne	.-12     	; 0x23b2 <usart_set_baudrate+0x40>
    23be:	10 c0       	rjmp	.+32     	; 0x23e0 <usart_set_baudrate+0x6e>
    23c0:	94 e0       	ldi	r25, 0x04	; 4
    23c2:	76 95       	lsr	r23
    23c4:	67 95       	ror	r22
    23c6:	57 95       	ror	r21
    23c8:	47 95       	ror	r20
    23ca:	9a 95       	dec	r25
    23cc:	d1 f7       	brne	.-12     	; 0x23c2 <usart_set_baudrate+0x50>
    23ce:	d9 01       	movw	r26, r18
    23d0:	c8 01       	movw	r24, r16
    23d2:	27 e1       	ldi	r18, 0x17	; 23
    23d4:	b6 95       	lsr	r27
    23d6:	a7 95       	ror	r26
    23d8:	97 95       	ror	r25
    23da:	87 95       	ror	r24
    23dc:	2a 95       	dec	r18
    23de:	d1 f7       	brne	.-12     	; 0x23d4 <usart_set_baudrate+0x62>
    23e0:	4c 15       	cp	r20, r12
    23e2:	5d 05       	cpc	r21, r13
    23e4:	6e 05       	cpc	r22, r14
    23e6:	7f 05       	cpc	r23, r15
    23e8:	08 f4       	brcc	.+2      	; 0x23ec <usart_set_baudrate+0x7a>
    23ea:	98 c0       	rjmp	.+304    	; 0x251c <usart_set_baudrate+0x1aa>
    23ec:	c8 16       	cp	r12, r24
    23ee:	d9 06       	cpc	r13, r25
    23f0:	ea 06       	cpc	r14, r26
    23f2:	fb 06       	cpc	r15, r27
    23f4:	08 f4       	brcc	.+2      	; 0x23f8 <usart_set_baudrate+0x86>
    23f6:	92 c0       	rjmp	.+292    	; 0x251c <usart_set_baudrate+0x1aa>
    23f8:	8c 81       	ldd	r24, Y+4	; 0x04
    23fa:	82 fd       	sbrc	r24, 2
    23fc:	04 c0       	rjmp	.+8      	; 0x2406 <usart_set_baudrate+0x94>
    23fe:	cc 0c       	add	r12, r12
    2400:	dd 1c       	adc	r13, r13
    2402:	ee 1c       	adc	r14, r14
    2404:	ff 1c       	adc	r15, r15
    2406:	c5 01       	movw	r24, r10
    2408:	b4 01       	movw	r22, r8
    240a:	a7 01       	movw	r20, r14
    240c:	96 01       	movw	r18, r12
    240e:	0e 94 50 1d 	call	0x3aa0	; 0x3aa0 <__udivmodsi4>
    2412:	19 ef       	ldi	r17, 0xF9	; 249
    2414:	8f ef       	ldi	r24, 0xFF	; 255
    2416:	90 e0       	ldi	r25, 0x00	; 0
    2418:	a0 e0       	ldi	r26, 0x00	; 0
    241a:	b0 e0       	ldi	r27, 0x00	; 0
    241c:	28 17       	cp	r18, r24
    241e:	39 07       	cpc	r19, r25
    2420:	4a 07       	cpc	r20, r26
    2422:	5b 07       	cpc	r21, r27
    2424:	58 f0       	brcs	.+22     	; 0x243c <usart_set_baudrate+0xca>
    2426:	88 0f       	add	r24, r24
    2428:	99 1f       	adc	r25, r25
    242a:	aa 1f       	adc	r26, r26
    242c:	bb 1f       	adc	r27, r27
    242e:	1d 3f       	cpi	r17, 0xFD	; 253
    2430:	0c f4       	brge	.+2      	; 0x2434 <usart_set_baudrate+0xc2>
    2432:	81 60       	ori	r24, 0x01	; 1
    2434:	1f 5f       	subi	r17, 0xFF	; 255
    2436:	17 30       	cpi	r17, 0x07	; 7
    2438:	89 f7       	brne	.-30     	; 0x241c <usart_set_baudrate+0xaa>
    243a:	49 c0       	rjmp	.+146    	; 0x24ce <usart_set_baudrate+0x15c>
    243c:	17 ff       	sbrs	r17, 7
    243e:	47 c0       	rjmp	.+142    	; 0x24ce <usart_set_baudrate+0x15c>
    2440:	d7 01       	movw	r26, r14
    2442:	c6 01       	movw	r24, r12
    2444:	f3 e0       	ldi	r31, 0x03	; 3
    2446:	88 0f       	add	r24, r24
    2448:	99 1f       	adc	r25, r25
    244a:	aa 1f       	adc	r26, r26
    244c:	bb 1f       	adc	r27, r27
    244e:	fa 95       	dec	r31
    2450:	d1 f7       	brne	.-12     	; 0x2446 <usart_set_baudrate+0xd4>
    2452:	88 1a       	sub	r8, r24
    2454:	99 0a       	sbc	r9, r25
    2456:	aa 0a       	sbc	r10, r26
    2458:	bb 0a       	sbc	r11, r27
    245a:	81 2f       	mov	r24, r17
    245c:	01 2e       	mov	r0, r17
    245e:	00 0c       	add	r0, r0
    2460:	99 0b       	sbc	r25, r25
    2462:	1e 3f       	cpi	r17, 0xFE	; 254
    2464:	dc f4       	brge	.+54     	; 0x249c <usart_set_baudrate+0x12a>
    2466:	2d ef       	ldi	r18, 0xFD	; 253
    2468:	3f ef       	ldi	r19, 0xFF	; 255
    246a:	a9 01       	movw	r20, r18
    246c:	48 1b       	sub	r20, r24
    246e:	59 0b       	sbc	r21, r25
    2470:	04 c0       	rjmp	.+8      	; 0x247a <usart_set_baudrate+0x108>
    2472:	88 0c       	add	r8, r8
    2474:	99 1c       	adc	r9, r9
    2476:	aa 1c       	adc	r10, r10
    2478:	bb 1c       	adc	r11, r11
    247a:	4a 95       	dec	r20
    247c:	d2 f7       	brpl	.-12     	; 0x2472 <usart_set_baudrate+0x100>
    247e:	d7 01       	movw	r26, r14
    2480:	c6 01       	movw	r24, r12
    2482:	b6 95       	lsr	r27
    2484:	a7 95       	ror	r26
    2486:	97 95       	ror	r25
    2488:	87 95       	ror	r24
    248a:	bc 01       	movw	r22, r24
    248c:	cd 01       	movw	r24, r26
    248e:	68 0d       	add	r22, r8
    2490:	79 1d       	adc	r23, r9
    2492:	8a 1d       	adc	r24, r10
    2494:	9b 1d       	adc	r25, r11
    2496:	a7 01       	movw	r20, r14
    2498:	96 01       	movw	r18, r12
    249a:	16 c0       	rjmp	.+44     	; 0x24c8 <usart_set_baudrate+0x156>
    249c:	03 96       	adiw	r24, 0x03	; 3
    249e:	a7 01       	movw	r20, r14
    24a0:	96 01       	movw	r18, r12
    24a2:	04 c0       	rjmp	.+8      	; 0x24ac <usart_set_baudrate+0x13a>
    24a4:	22 0f       	add	r18, r18
    24a6:	33 1f       	adc	r19, r19
    24a8:	44 1f       	adc	r20, r20
    24aa:	55 1f       	adc	r21, r21
    24ac:	8a 95       	dec	r24
    24ae:	d2 f7       	brpl	.-12     	; 0x24a4 <usart_set_baudrate+0x132>
    24b0:	da 01       	movw	r26, r20
    24b2:	c9 01       	movw	r24, r18
    24b4:	b6 95       	lsr	r27
    24b6:	a7 95       	ror	r26
    24b8:	97 95       	ror	r25
    24ba:	87 95       	ror	r24
    24bc:	bc 01       	movw	r22, r24
    24be:	cd 01       	movw	r24, r26
    24c0:	68 0d       	add	r22, r8
    24c2:	79 1d       	adc	r23, r9
    24c4:	8a 1d       	adc	r24, r10
    24c6:	9b 1d       	adc	r25, r11
    24c8:	0e 94 50 1d 	call	0x3aa0	; 0x3aa0 <__udivmodsi4>
    24cc:	1d c0       	rjmp	.+58     	; 0x2508 <usart_set_baudrate+0x196>
    24ce:	83 e0       	ldi	r24, 0x03	; 3
    24d0:	81 0f       	add	r24, r17
    24d2:	a7 01       	movw	r20, r14
    24d4:	96 01       	movw	r18, r12
    24d6:	04 c0       	rjmp	.+8      	; 0x24e0 <usart_set_baudrate+0x16e>
    24d8:	22 0f       	add	r18, r18
    24da:	33 1f       	adc	r19, r19
    24dc:	44 1f       	adc	r20, r20
    24de:	55 1f       	adc	r21, r21
    24e0:	8a 95       	dec	r24
    24e2:	d2 f7       	brpl	.-12     	; 0x24d8 <usart_set_baudrate+0x166>
    24e4:	da 01       	movw	r26, r20
    24e6:	c9 01       	movw	r24, r18
    24e8:	b6 95       	lsr	r27
    24ea:	a7 95       	ror	r26
    24ec:	97 95       	ror	r25
    24ee:	87 95       	ror	r24
    24f0:	bc 01       	movw	r22, r24
    24f2:	cd 01       	movw	r24, r26
    24f4:	68 0d       	add	r22, r8
    24f6:	79 1d       	adc	r23, r9
    24f8:	8a 1d       	adc	r24, r10
    24fa:	9b 1d       	adc	r25, r11
    24fc:	0e 94 50 1d 	call	0x3aa0	; 0x3aa0 <__udivmodsi4>
    2500:	21 50       	subi	r18, 0x01	; 1
    2502:	31 09       	sbc	r19, r1
    2504:	41 09       	sbc	r20, r1
    2506:	51 09       	sbc	r21, r1
    2508:	93 2f       	mov	r25, r19
    250a:	9f 70       	andi	r25, 0x0F	; 15
    250c:	81 2f       	mov	r24, r17
    250e:	82 95       	swap	r24
    2510:	80 7f       	andi	r24, 0xF0	; 240
    2512:	89 2b       	or	r24, r25
    2514:	8f 83       	std	Y+7, r24	; 0x07
    2516:	2e 83       	std	Y+6, r18	; 0x06
    2518:	81 e0       	ldi	r24, 0x01	; 1
    251a:	01 c0       	rjmp	.+2      	; 0x251e <usart_set_baudrate+0x1ac>
    251c:	80 e0       	ldi	r24, 0x00	; 0
    251e:	df 91       	pop	r29
    2520:	cf 91       	pop	r28
    2522:	1f 91       	pop	r17
    2524:	0f 91       	pop	r16
    2526:	ff 90       	pop	r15
    2528:	ef 90       	pop	r14
    252a:	df 90       	pop	r13
    252c:	cf 90       	pop	r12
    252e:	bf 90       	pop	r11
    2530:	af 90       	pop	r10
    2532:	9f 90       	pop	r9
    2534:	8f 90       	pop	r8
    2536:	08 95       	ret

00002538 <usart_init_rs232>:
    2538:	0f 93       	push	r16
    253a:	1f 93       	push	r17
    253c:	cf 93       	push	r28
    253e:	df 93       	push	r29
    2540:	ec 01       	movw	r28, r24
    2542:	8b 01       	movw	r16, r22
    2544:	1b de       	rcall	.-970    	; 0x217c <sysclk_enable_peripheral_clock>
    2546:	8d 81       	ldd	r24, Y+5	; 0x05
    2548:	8f 73       	andi	r24, 0x3F	; 63
    254a:	8d 83       	std	Y+5, r24	; 0x05
    254c:	f8 01       	movw	r30, r16
    254e:	95 81       	ldd	r25, Z+5	; 0x05
    2550:	84 81       	ldd	r24, Z+4	; 0x04
    2552:	98 2b       	or	r25, r24
    2554:	86 81       	ldd	r24, Z+6	; 0x06
    2556:	81 11       	cpse	r24, r1
    2558:	88 e0       	ldi	r24, 0x08	; 8
    255a:	89 2b       	or	r24, r25
    255c:	8d 83       	std	Y+5, r24	; 0x05
    255e:	f8 01       	movw	r30, r16
    2560:	40 81       	ld	r20, Z
    2562:	51 81       	ldd	r21, Z+1	; 0x01
    2564:	62 81       	ldd	r22, Z+2	; 0x02
    2566:	73 81       	ldd	r23, Z+3	; 0x03
    2568:	00 e8       	ldi	r16, 0x80	; 128
    256a:	14 e8       	ldi	r17, 0x84	; 132
    256c:	2e e1       	ldi	r18, 0x1E	; 30
    256e:	30 e0       	ldi	r19, 0x00	; 0
    2570:	ce 01       	movw	r24, r28
    2572:	ff de       	rcall	.-514    	; 0x2372 <usart_set_baudrate>
    2574:	9c 81       	ldd	r25, Y+4	; 0x04
    2576:	98 60       	ori	r25, 0x08	; 8
    2578:	9c 83       	std	Y+4, r25	; 0x04
    257a:	9c 81       	ldd	r25, Y+4	; 0x04
    257c:	90 61       	ori	r25, 0x10	; 16
    257e:	9c 83       	std	Y+4, r25	; 0x04
    2580:	df 91       	pop	r29
    2582:	cf 91       	pop	r28
    2584:	1f 91       	pop	r17
    2586:	0f 91       	pop	r16
    2588:	08 95       	ret

0000258a <__portable_avr_delay_cycles>:
    258a:	04 c0       	rjmp	.+8      	; 0x2594 <__portable_avr_delay_cycles+0xa>
    258c:	61 50       	subi	r22, 0x01	; 1
    258e:	71 09       	sbc	r23, r1
    2590:	81 09       	sbc	r24, r1
    2592:	91 09       	sbc	r25, r1
    2594:	61 15       	cp	r22, r1
    2596:	71 05       	cpc	r23, r1
    2598:	81 05       	cpc	r24, r1
    259a:	91 05       	cpc	r25, r1
    259c:	b9 f7       	brne	.-18     	; 0x258c <__portable_avr_delay_cycles+0x2>
    259e:	08 95       	ret

000025a0 <mqtt_packet>:
    25a0:	2f 92       	push	r2
    25a2:	3f 92       	push	r3
    25a4:	4f 92       	push	r4
    25a6:	5f 92       	push	r5
    25a8:	6f 92       	push	r6
    25aa:	7f 92       	push	r7
    25ac:	8f 92       	push	r8
    25ae:	9f 92       	push	r9
    25b0:	af 92       	push	r10
    25b2:	bf 92       	push	r11
    25b4:	cf 92       	push	r12
    25b6:	df 92       	push	r13
    25b8:	ef 92       	push	r14
    25ba:	ff 92       	push	r15
    25bc:	0f 93       	push	r16
    25be:	1f 93       	push	r17
    25c0:	cf 93       	push	r28
    25c2:	df 93       	push	r29
    25c4:	cd b7       	in	r28, 0x3d	; 61
    25c6:	de b7       	in	r29, 0x3e	; 62
    25c8:	e7 97       	sbiw	r28, 0x37	; 55
    25ca:	cd bf       	out	0x3d, r28	; 61
    25cc:	de bf       	out	0x3e, r29	; 62
    25ce:	f8 2e       	mov	r15, r24
    25d0:	e9 2e       	mov	r14, r25
    25d2:	1b 01       	movw	r2, r22
    25d4:	2a 01       	movw	r4, r20
    25d6:	81 e3       	ldi	r24, 0x31	; 49
    25d8:	ef e2       	ldi	r30, 0x2F	; 47
    25da:	f0 e2       	ldi	r31, 0x20	; 32
    25dc:	de 01       	movw	r26, r28
    25de:	11 96       	adiw	r26, 0x01	; 1
    25e0:	01 90       	ld	r0, Z+
    25e2:	0d 92       	st	X+, r0
    25e4:	8a 95       	dec	r24
    25e6:	e1 f7       	brne	.-8      	; 0x25e0 <mqtt_packet+0x40>
    25e8:	1c aa       	std	Y+52, r1	; 0x34
    25ea:	1d aa       	std	Y+53, r1	; 0x35
    25ec:	1e aa       	std	Y+54, r1	; 0x36
    25ee:	1f aa       	std	Y+55, r1	; 0x37
    25f0:	ef 2d       	mov	r30, r15
    25f2:	f9 2f       	mov	r31, r25
    25f4:	df 01       	movw	r26, r30
    25f6:	0d 90       	ld	r0, X+
    25f8:	00 20       	and	r0, r0
    25fa:	e9 f7       	brne	.-6      	; 0x25f6 <mqtt_packet+0x56>
    25fc:	11 97       	sbiw	r26, 0x01	; 1
    25fe:	8d 01       	movw	r16, r26
    2600:	0e 1b       	sub	r16, r30
    2602:	1f 0b       	sbc	r17, r31
    2604:	8c e6       	ldi	r24, 0x6C	; 108
    2606:	90 e2       	ldi	r25, 0x20	; 32
    2608:	88 87       	std	Y+8, r24	; 0x08
    260a:	99 87       	std	Y+9, r25	; 0x09
    260c:	84 e1       	ldi	r24, 0x14	; 20
    260e:	90 e0       	ldi	r25, 0x00	; 0
    2610:	8e 87       	std	Y+14, r24	; 0x0e
    2612:	9f 87       	std	Y+15, r25	; 0x0f
    2614:	81 e0       	ldi	r24, 0x01	; 1
    2616:	88 8b       	std	Y+16, r24	; 0x10
    2618:	88 ec       	ldi	r24, 0xC8	; 200
    261a:	90 e2       	ldi	r25, 0x20	; 32
    261c:	8e a3       	std	Y+38, r24	; 0x26
    261e:	9f a3       	std	Y+39, r25	; 0x27
    2620:	8c a7       	std	Y+44, r24	; 0x2c
    2622:	9d a7       	std	Y+45, r25	; 0x2d
    2624:	84 e0       	ldi	r24, 0x04	; 4
    2626:	8f 83       	std	Y+7, r24	; 0x07
    2628:	ae 01       	movw	r20, r28
    262a:	4f 5f       	subi	r20, 0xFF	; 255
    262c:	5f 4f       	sbci	r21, 0xFF	; 255
    262e:	b2 01       	movw	r22, r4
    2630:	c1 01       	movw	r24, r2
    2632:	89 da       	rcall	.-2798   	; 0x1b46 <MQTTSerialize_connect>
    2634:	3c 01       	movw	r6, r24
    2636:	80 e7       	ldi	r24, 0x70	; 112
    2638:	90 e2       	ldi	r25, 0x20	; 32
    263a:	8a ab       	std	Y+50, r24	; 0x32
    263c:	9b ab       	std	Y+51, r25	; 0x33
    263e:	b2 01       	movw	r22, r4
    2640:	66 19       	sub	r22, r6
    2642:	77 09       	sbc	r23, r7
    2644:	1f 93       	push	r17
    2646:	0f 93       	push	r16
    2648:	ef 92       	push	r14
    264a:	ff 92       	push	r15
    264c:	8a a8       	ldd	r8, Y+50	; 0x32
    264e:	9b a8       	ldd	r9, Y+51	; 0x33
    2650:	ac a8       	ldd	r10, Y+52	; 0x34
    2652:	bd a8       	ldd	r11, Y+53	; 0x35
    2654:	ce a8       	ldd	r12, Y+54	; 0x36
    2656:	df a8       	ldd	r13, Y+55	; 0x37
    2658:	e1 2c       	mov	r14, r1
    265a:	f1 2c       	mov	r15, r1
    265c:	00 e0       	ldi	r16, 0x00	; 0
    265e:	20 e0       	ldi	r18, 0x00	; 0
    2660:	30 e0       	ldi	r19, 0x00	; 0
    2662:	40 e0       	ldi	r20, 0x00	; 0
    2664:	c1 01       	movw	r24, r2
    2666:	86 0d       	add	r24, r6
    2668:	97 1d       	adc	r25, r7
    266a:	73 dc       	rcall	.-1818   	; 0x1f52 <MQTTSerialize_publish>
    266c:	68 0e       	add	r6, r24
    266e:	79 1e       	adc	r7, r25
    2670:	b2 01       	movw	r22, r4
    2672:	66 19       	sub	r22, r6
    2674:	77 09       	sbc	r23, r7
    2676:	c1 01       	movw	r24, r2
    2678:	86 0d       	add	r24, r6
    267a:	97 1d       	adc	r25, r7
    267c:	52 db       	rcall	.-2396   	; 0x1d22 <MQTTSerialize_disconnect>
    267e:	0f 90       	pop	r0
    2680:	0f 90       	pop	r0
    2682:	0f 90       	pop	r0
    2684:	0f 90       	pop	r0
    2686:	86 0d       	add	r24, r6
    2688:	97 1d       	adc	r25, r7
    268a:	e7 96       	adiw	r28, 0x37	; 55
    268c:	cd bf       	out	0x3d, r28	; 61
    268e:	de bf       	out	0x3e, r29	; 62
    2690:	df 91       	pop	r29
    2692:	cf 91       	pop	r28
    2694:	1f 91       	pop	r17
    2696:	0f 91       	pop	r16
    2698:	ff 90       	pop	r15
    269a:	ef 90       	pop	r14
    269c:	df 90       	pop	r13
    269e:	cf 90       	pop	r12
    26a0:	bf 90       	pop	r11
    26a2:	af 90       	pop	r10
    26a4:	9f 90       	pop	r9
    26a6:	8f 90       	pop	r8
    26a8:	7f 90       	pop	r7
    26aa:	6f 90       	pop	r6
    26ac:	5f 90       	pop	r5
    26ae:	4f 90       	pop	r4
    26b0:	3f 90       	pop	r3
    26b2:	2f 90       	pop	r2
    26b4:	08 95       	ret

000026b6 <usart_tx_at>:
    26b6:	0f 93       	push	r16
    26b8:	1f 93       	push	r17
    26ba:	cf 93       	push	r28
    26bc:	df 93       	push	r29
    26be:	8c 01       	movw	r16, r24
    26c0:	eb 01       	movw	r28, r22
    26c2:	69 91       	ld	r22, Y+
    26c4:	66 23       	and	r22, r22
    26c6:	19 f0       	breq	.+6      	; 0x26ce <usart_tx_at+0x18>
    26c8:	c8 01       	movw	r24, r16
    26ca:	4b de       	rcall	.-874    	; 0x2362 <usart_putchar>
    26cc:	fa cf       	rjmp	.-12     	; 0x26c2 <usart_tx_at+0xc>
    26ce:	df 91       	pop	r29
    26d0:	cf 91       	pop	r28
    26d2:	1f 91       	pop	r17
    26d4:	0f 91       	pop	r16
    26d6:	08 95       	ret

000026d8 <usart_rx_at>:
    26d8:	0f 93       	push	r16
    26da:	1f 93       	push	r17
    26dc:	28 ee       	ldi	r18, 0xE8	; 232
    26de:	33 e0       	ldi	r19, 0x03	; 3
    26e0:	62 9f       	mul	r22, r18
    26e2:	80 01       	movw	r16, r0
    26e4:	63 9f       	mul	r22, r19
    26e6:	10 0d       	add	r17, r0
    26e8:	72 9f       	mul	r23, r18
    26ea:	10 0d       	add	r17, r0
    26ec:	11 24       	eor	r1, r1
    26ee:	20 e0       	ldi	r18, 0x00	; 0
    26f0:	30 e0       	ldi	r19, 0x00	; 0
    26f2:	fc 01       	movw	r30, r24
    26f4:	61 81       	ldd	r22, Z+1	; 0x01
    26f6:	67 fd       	sbrc	r22, 7
    26f8:	0a c0       	rjmp	.+20     	; 0x270e <usart_rx_at+0x36>
    26fa:	01 15       	cp	r16, r1
    26fc:	11 05       	cpc	r17, r1
    26fe:	21 05       	cpc	r18, r1
    2700:	31 05       	cpc	r19, r1
    2702:	29 f0       	breq	.+10     	; 0x270e <usart_rx_at+0x36>
    2704:	01 50       	subi	r16, 0x01	; 1
    2706:	11 09       	sbc	r17, r1
    2708:	21 09       	sbc	r18, r1
    270a:	31 09       	sbc	r19, r1
    270c:	f2 cf       	rjmp	.-28     	; 0x26f2 <usart_rx_at+0x1a>
    270e:	01 2b       	or	r16, r17
    2710:	02 2b       	or	r16, r18
    2712:	03 2b       	or	r16, r19
    2714:	19 f4       	brne	.+6      	; 0x271c <usart_rx_at+0x44>
    2716:	21 e0       	ldi	r18, 0x01	; 1
    2718:	fa 01       	movw	r30, r20
    271a:	20 83       	st	Z, r18
    271c:	fc 01       	movw	r30, r24
    271e:	80 81       	ld	r24, Z
    2720:	1f 91       	pop	r17
    2722:	0f 91       	pop	r16
    2724:	08 95       	ret

00002726 <at_response>:
    2726:	8f 92       	push	r8
    2728:	9f 92       	push	r9
    272a:	af 92       	push	r10
    272c:	bf 92       	push	r11
    272e:	cf 92       	push	r12
    2730:	df 92       	push	r13
    2732:	ef 92       	push	r14
    2734:	ff 92       	push	r15
    2736:	1f 93       	push	r17
    2738:	cf 93       	push	r28
    273a:	df 93       	push	r29
    273c:	1f 92       	push	r1
    273e:	cd b7       	in	r28, 0x3d	; 61
    2740:	de b7       	in	r29, 0x3e	; 62
    2742:	7c 01       	movw	r14, r24
    2744:	6b 01       	movw	r12, r22
    2746:	5a 01       	movw	r10, r20
    2748:	19 82       	std	Y+1, r1	; 0x01
    274a:	10 e0       	ldi	r17, 0x00	; 0
    274c:	89 81       	ldd	r24, Y+1	; 0x01
    274e:	81 11       	cpse	r24, r1
    2750:	0f c0       	rjmp	.+30     	; 0x2770 <at_response+0x4a>
    2752:	14 36       	cpi	r17, 0x64	; 100
    2754:	68 f4       	brcc	.+26     	; 0x2770 <at_response+0x4a>
    2756:	45 01       	movw	r8, r10
    2758:	81 0e       	add	r8, r17
    275a:	91 1c       	adc	r9, r1
    275c:	ae 01       	movw	r20, r28
    275e:	4f 5f       	subi	r20, 0xFF	; 255
    2760:	5f 4f       	sbci	r21, 0xFF	; 255
    2762:	b6 01       	movw	r22, r12
    2764:	c7 01       	movw	r24, r14
    2766:	b8 df       	rcall	.-144    	; 0x26d8 <usart_rx_at>
    2768:	f4 01       	movw	r30, r8
    276a:	80 83       	st	Z, r24
    276c:	1f 5f       	subi	r17, 0xFF	; 255
    276e:	ee cf       	rjmp	.-36     	; 0x274c <at_response+0x26>
    2770:	0f 90       	pop	r0
    2772:	df 91       	pop	r29
    2774:	cf 91       	pop	r28
    2776:	1f 91       	pop	r17
    2778:	ff 90       	pop	r15
    277a:	ef 90       	pop	r14
    277c:	df 90       	pop	r13
    277e:	cf 90       	pop	r12
    2780:	bf 90       	pop	r11
    2782:	af 90       	pop	r10
    2784:	9f 90       	pop	r9
    2786:	8f 90       	pop	r8
    2788:	08 95       	ret

0000278a <led_blink>:
    278a:	2f 92       	push	r2
    278c:	3f 92       	push	r3
    278e:	4f 92       	push	r4
    2790:	5f 92       	push	r5
    2792:	6f 92       	push	r6
    2794:	7f 92       	push	r7
    2796:	8f 92       	push	r8
    2798:	9f 92       	push	r9
    279a:	af 92       	push	r10
    279c:	bf 92       	push	r11
    279e:	cf 92       	push	r12
    27a0:	df 92       	push	r13
    27a2:	ef 92       	push	r14
    27a4:	ff 92       	push	r15
    27a6:	0f 93       	push	r16
    27a8:	1f 93       	push	r17
    27aa:	cf 93       	push	r28
    27ac:	df 93       	push	r29
    27ae:	ec 01       	movw	r28, r24
    27b0:	80 91 c4 07 	lds	r24, 0x07C4	; 0x8007c4 <__TEXT_REGION_LENGTH__+0x7007c4>
    27b4:	87 7f       	andi	r24, 0xF7	; 247
    27b6:	80 93 c4 07 	sts	0x07C4, r24	; 0x8007c4 <__TEXT_REGION_LENGTH__+0x7007c4>
    27ba:	20 97       	sbiw	r28, 0x00	; 0
    27bc:	69 f1       	breq	.+90     	; 0x2818 <led_blink+0x8e>
    27be:	f0 e8       	ldi	r31, 0x80	; 128
    27c0:	af 2e       	mov	r10, r31
    27c2:	a4 e8       	ldi	r26, 0x84	; 132
    27c4:	ba 2e       	mov	r11, r26
    27c6:	be e1       	ldi	r27, 0x1E	; 30
    27c8:	cb 2e       	mov	r12, r27
    27ca:	d1 2c       	mov	r13, r1
    27cc:	e1 2c       	mov	r14, r1
    27ce:	f1 2c       	mov	r15, r1
    27d0:	00 e0       	ldi	r16, 0x00	; 0
    27d2:	10 e0       	ldi	r17, 0x00	; 0
    27d4:	9e 01       	movw	r18, r28
    27d6:	40 e0       	ldi	r20, 0x00	; 0
    27d8:	50 e0       	ldi	r21, 0x00	; 0
    27da:	60 e0       	ldi	r22, 0x00	; 0
    27dc:	70 e0       	ldi	r23, 0x00	; 0
    27de:	80 e0       	ldi	r24, 0x00	; 0
    27e0:	90 e0       	ldi	r25, 0x00	; 0
    27e2:	0e 94 7b 1d 	call	0x3af6	; 0x3af6 <__muldi3>
    27e6:	e6 e0       	ldi	r30, 0x06	; 6
    27e8:	ae 2e       	mov	r10, r30
    27ea:	b1 2c       	mov	r11, r1
    27ec:	c1 2c       	mov	r12, r1
    27ee:	0e 94 ce 1d 	call	0x3b9c	; 0x3b9c <__udivdi3>
    27f2:	29 51       	subi	r18, 0x19	; 25
    27f4:	3c 4f       	sbci	r19, 0xFC	; 252
    27f6:	4f 4f       	sbci	r20, 0xFF	; 255
    27f8:	5f 4f       	sbci	r21, 0xFF	; 255
    27fa:	6f 4f       	sbci	r22, 0xFF	; 255
    27fc:	7f 4f       	sbci	r23, 0xFF	; 255
    27fe:	8f 4f       	sbci	r24, 0xFF	; 255
    2800:	9f 4f       	sbci	r25, 0xFF	; 255
    2802:	47 d6       	rcall	.+3214   	; 0x3492 <__floatundisf>
    2804:	20 e0       	ldi	r18, 0x00	; 0
    2806:	30 e0       	ldi	r19, 0x00	; 0
    2808:	4a e7       	ldi	r20, 0x7A	; 122
    280a:	54 e4       	ldi	r21, 0x44	; 68
    280c:	63 d5       	rcall	.+2758   	; 0x32d4 <__divsf3>
    280e:	cf d5       	rcall	.+2974   	; 0x33ae <__fixunssfdi>
    2810:	b9 01       	movw	r22, r18
    2812:	ca 01       	movw	r24, r20
    2814:	ba de       	rcall	.-652    	; 0x258a <__portable_avr_delay_cycles>
    2816:	05 c0       	rjmp	.+10     	; 0x2822 <led_blink+0x98>
    2818:	61 e0       	ldi	r22, 0x01	; 1
    281a:	70 e0       	ldi	r23, 0x00	; 0
    281c:	80 e0       	ldi	r24, 0x00	; 0
    281e:	90 e0       	ldi	r25, 0x00	; 0
    2820:	b4 de       	rcall	.-664    	; 0x258a <__portable_avr_delay_cycles>
    2822:	80 91 c4 07 	lds	r24, 0x07C4	; 0x8007c4 <__TEXT_REGION_LENGTH__+0x7007c4>
    2826:	88 60       	ori	r24, 0x08	; 8
    2828:	80 93 c4 07 	sts	0x07C4, r24	; 0x8007c4 <__TEXT_REGION_LENGTH__+0x7007c4>
    282c:	20 97       	sbiw	r28, 0x00	; 0
    282e:	61 f1       	breq	.+88     	; 0x2888 <led_blink+0xfe>
    2830:	20 e8       	ldi	r18, 0x80	; 128
    2832:	a2 2e       	mov	r10, r18
    2834:	34 e8       	ldi	r19, 0x84	; 132
    2836:	b3 2e       	mov	r11, r19
    2838:	4e e1       	ldi	r20, 0x1E	; 30
    283a:	c4 2e       	mov	r12, r20
    283c:	d1 2c       	mov	r13, r1
    283e:	e1 2c       	mov	r14, r1
    2840:	f1 2c       	mov	r15, r1
    2842:	00 e0       	ldi	r16, 0x00	; 0
    2844:	10 e0       	ldi	r17, 0x00	; 0
    2846:	9e 01       	movw	r18, r28
    2848:	40 e0       	ldi	r20, 0x00	; 0
    284a:	50 e0       	ldi	r21, 0x00	; 0
    284c:	60 e0       	ldi	r22, 0x00	; 0
    284e:	70 e0       	ldi	r23, 0x00	; 0
    2850:	80 e0       	ldi	r24, 0x00	; 0
    2852:	90 e0       	ldi	r25, 0x00	; 0
    2854:	0e 94 7b 1d 	call	0x3af6	; 0x3af6 <__muldi3>
    2858:	e6 e0       	ldi	r30, 0x06	; 6
    285a:	ae 2e       	mov	r10, r30
    285c:	b1 2c       	mov	r11, r1
    285e:	c1 2c       	mov	r12, r1
    2860:	0e 94 ce 1d 	call	0x3b9c	; 0x3b9c <__udivdi3>
    2864:	29 51       	subi	r18, 0x19	; 25
    2866:	3c 4f       	sbci	r19, 0xFC	; 252
    2868:	4f 4f       	sbci	r20, 0xFF	; 255
    286a:	5f 4f       	sbci	r21, 0xFF	; 255
    286c:	6f 4f       	sbci	r22, 0xFF	; 255
    286e:	7f 4f       	sbci	r23, 0xFF	; 255
    2870:	8f 4f       	sbci	r24, 0xFF	; 255
    2872:	9f 4f       	sbci	r25, 0xFF	; 255
    2874:	0e d6       	rcall	.+3100   	; 0x3492 <__floatundisf>
    2876:	20 e0       	ldi	r18, 0x00	; 0
    2878:	30 e0       	ldi	r19, 0x00	; 0
    287a:	4a e7       	ldi	r20, 0x7A	; 122
    287c:	54 e4       	ldi	r21, 0x44	; 68
    287e:	2a d5       	rcall	.+2644   	; 0x32d4 <__divsf3>
    2880:	96 d5       	rcall	.+2860   	; 0x33ae <__fixunssfdi>
    2882:	b9 01       	movw	r22, r18
    2884:	ca 01       	movw	r24, r20
    2886:	04 c0       	rjmp	.+8      	; 0x2890 <led_blink+0x106>
    2888:	61 e0       	ldi	r22, 0x01	; 1
    288a:	70 e0       	ldi	r23, 0x00	; 0
    288c:	80 e0       	ldi	r24, 0x00	; 0
    288e:	90 e0       	ldi	r25, 0x00	; 0
    2890:	df 91       	pop	r29
    2892:	cf 91       	pop	r28
    2894:	1f 91       	pop	r17
    2896:	0f 91       	pop	r16
    2898:	ff 90       	pop	r15
    289a:	ef 90       	pop	r14
    289c:	df 90       	pop	r13
    289e:	cf 90       	pop	r12
    28a0:	bf 90       	pop	r11
    28a2:	af 90       	pop	r10
    28a4:	9f 90       	pop	r9
    28a6:	8f 90       	pop	r8
    28a8:	7f 90       	pop	r7
    28aa:	6f 90       	pop	r6
    28ac:	5f 90       	pop	r5
    28ae:	4f 90       	pop	r4
    28b0:	3f 90       	pop	r3
    28b2:	2f 90       	pop	r2
    28b4:	6a ce       	rjmp	.-812    	; 0x258a <__portable_avr_delay_cycles>

000028b6 <rtc_init_period>:
    28b6:	0f 93       	push	r16
    28b8:	1f 93       	push	r17
    28ba:	cf 93       	push	r28
    28bc:	df 93       	push	r29
    28be:	1f 92       	push	r1
    28c0:	cd b7       	in	r28, 0x3d	; 61
    28c2:	de b7       	in	r29, 0x3e	; 62
    28c4:	8c 01       	movw	r16, r24
    28c6:	64 e0       	ldi	r22, 0x04	; 4
    28c8:	80 e0       	ldi	r24, 0x00	; 0
    28ca:	d9 db       	rcall	.-2126   	; 0x207e <sysclk_enable_module>
    28cc:	00 93 0a 04 	sts	0x040A, r16	; 0x80040a <__TEXT_REGION_LENGTH__+0x70040a>
    28d0:	10 93 0b 04 	sts	0x040B, r17	; 0x80040b <__TEXT_REGION_LENGTH__+0x70040b>
    28d4:	10 92 08 04 	sts	0x0408, r1	; 0x800408 <__TEXT_REGION_LENGTH__+0x700408>
    28d8:	10 92 09 04 	sts	0x0409, r1	; 0x800409 <__TEXT_REGION_LENGTH__+0x700409>
    28dc:	80 91 c0 23 	lds	r24, 0x23C0	; 0x8023c0 <sleepmgr_locks+0x3>
    28e0:	8f 3f       	cpi	r24, 0xFF	; 255
    28e2:	09 f4       	brne	.+2      	; 0x28e6 <rtc_init_period+0x30>
    28e4:	ff cf       	rjmp	.-2      	; 0x28e4 <rtc_init_period+0x2e>
    28e6:	8f b7       	in	r24, 0x3f	; 63
    28e8:	89 83       	std	Y+1, r24	; 0x01
    28ea:	f8 94       	cli
    28ec:	99 81       	ldd	r25, Y+1	; 0x01
    28ee:	80 91 c0 23 	lds	r24, 0x23C0	; 0x8023c0 <sleepmgr_locks+0x3>
    28f2:	8f 5f       	subi	r24, 0xFF	; 255
    28f4:	80 93 c0 23 	sts	0x23C0, r24	; 0x8023c0 <sleepmgr_locks+0x3>
    28f8:	9f bf       	out	0x3f, r25	; 63
    28fa:	80 91 02 04 	lds	r24, 0x0402	; 0x800402 <__TEXT_REGION_LENGTH__+0x700402>
    28fe:	81 60       	ori	r24, 0x01	; 1
    2900:	80 93 02 04 	sts	0x0402, r24	; 0x800402 <__TEXT_REGION_LENGTH__+0x700402>
    2904:	87 e0       	ldi	r24, 0x07	; 7
    2906:	80 93 00 04 	sts	0x0400, r24	; 0x800400 <__TEXT_REGION_LENGTH__+0x700400>
    290a:	0f 90       	pop	r0
    290c:	df 91       	pop	r29
    290e:	cf 91       	pop	r28
    2910:	1f 91       	pop	r17
    2912:	0f 91       	pop	r16
    2914:	08 95       	ret

00002916 <adc_result_average>:
    2916:	0f 93       	push	r16
    2918:	1f 93       	push	r17
    291a:	cf 93       	push	r28
    291c:	df 93       	push	r29
    291e:	1f 92       	push	r1
    2920:	cd b7       	in	r28, 0x3d	; 61
    2922:	de b7       	in	r29, 0x3e	; 62
    2924:	48 2f       	mov	r20, r24
    2926:	0d b7       	in	r16, 0x3d	; 61
    2928:	1e b7       	in	r17, 0x3e	; 62
    292a:	8d b7       	in	r24, 0x3d	; 61
    292c:	9e b7       	in	r25, 0x3e	; 62
    292e:	22 e0       	ldi	r18, 0x02	; 2
    2930:	42 9f       	mul	r20, r18
    2932:	80 19       	sub	r24, r0
    2934:	91 09       	sbc	r25, r1
    2936:	11 24       	eor	r1, r1
    2938:	8d bf       	out	0x3d, r24	; 61
    293a:	9e bf       	out	0x3e, r25	; 62
    293c:	ed b7       	in	r30, 0x3d	; 61
    293e:	fe b7       	in	r31, 0x3e	; 62
    2940:	31 96       	adiw	r30, 0x01	; 1
    2942:	60 e0       	ldi	r22, 0x00	; 0
    2944:	70 e0       	ldi	r23, 0x00	; 0
    2946:	cb 01       	movw	r24, r22
    2948:	20 e0       	ldi	r18, 0x00	; 0
    294a:	24 17       	cp	r18, r20
    294c:	f1 f0       	breq	.+60     	; 0x298a <adc_result_average+0x74>
    294e:	3f b7       	in	r19, 0x3f	; 63
    2950:	39 83       	std	Y+1, r19	; 0x01
    2952:	f8 94       	cli
    2954:	59 81       	ldd	r21, Y+1	; 0x01
    2956:	30 91 00 02 	lds	r19, 0x0200	; 0x800200 <__TEXT_REGION_LENGTH__+0x700200>
    295a:	34 60       	ori	r19, 0x04	; 4
    295c:	30 93 00 02 	sts	0x0200, r19	; 0x800200 <__TEXT_REGION_LENGTH__+0x700200>
    2960:	5f bf       	out	0x3f, r21	; 63
    2962:	30 91 06 02 	lds	r19, 0x0206	; 0x800206 <__TEXT_REGION_LENGTH__+0x700206>
    2966:	53 2f       	mov	r21, r19
    2968:	51 70       	andi	r21, 0x01	; 1
    296a:	30 ff       	sbrs	r19, 0
    296c:	fa cf       	rjmp	.-12     	; 0x2962 <adc_result_average+0x4c>
    296e:	50 93 06 02 	sts	0x0206, r21	; 0x800206 <__TEXT_REGION_LENGTH__+0x700206>
    2972:	a0 91 24 02 	lds	r26, 0x0224	; 0x800224 <__TEXT_REGION_LENGTH__+0x700224>
    2976:	b0 91 25 02 	lds	r27, 0x0225	; 0x800225 <__TEXT_REGION_LENGTH__+0x700225>
    297a:	a1 93       	st	Z+, r26
    297c:	b1 93       	st	Z+, r27
    297e:	6a 0f       	add	r22, r26
    2980:	7b 1f       	adc	r23, r27
    2982:	81 1d       	adc	r24, r1
    2984:	91 1d       	adc	r25, r1
    2986:	2f 5f       	subi	r18, 0xFF	; 255
    2988:	e0 cf       	rjmp	.-64     	; 0x294a <adc_result_average+0x34>
    298a:	30 e0       	ldi	r19, 0x00	; 0
    298c:	40 e0       	ldi	r20, 0x00	; 0
    298e:	50 e0       	ldi	r21, 0x00	; 0
    2990:	0e 94 50 1d 	call	0x3aa0	; 0x3aa0 <__udivmodsi4>
    2994:	c9 01       	movw	r24, r18
    2996:	0d bf       	out	0x3d, r16	; 61
    2998:	1e bf       	out	0x3e, r17	; 62
    299a:	0f 90       	pop	r0
    299c:	df 91       	pop	r29
    299e:	cf 91       	pop	r28
    29a0:	1f 91       	pop	r17
    29a2:	0f 91       	pop	r16
    29a4:	08 95       	ret

000029a6 <loadcell_min_max_tran>:
    29a6:	fb 01       	movw	r30, r22
    29a8:	20 85       	ldd	r18, Z+8	; 0x08
    29aa:	31 85       	ldd	r19, Z+9	; 0x09
    29ac:	ac 01       	movw	r20, r24
    29ae:	42 1b       	sub	r20, r18
    29b0:	53 0b       	sbc	r21, r19
    29b2:	9a 01       	movw	r18, r20
    29b4:	57 ff       	sbrs	r21, 7
    29b6:	04 c0       	rjmp	.+8      	; 0x29c0 <loadcell_min_max_tran+0x1a>
    29b8:	44 27       	eor	r20, r20
    29ba:	55 27       	eor	r21, r21
    29bc:	42 1b       	sub	r20, r18
    29be:	53 0b       	sbc	r21, r19
    29c0:	66 81       	ldd	r22, Z+6	; 0x06
    29c2:	77 81       	ldd	r23, Z+7	; 0x07
    29c4:	77 ff       	sbrs	r23, 7
    29c6:	03 c0       	rjmp	.+6      	; 0x29ce <loadcell_min_max_tran+0x28>
    29c8:	71 95       	neg	r23
    29ca:	61 95       	neg	r22
    29cc:	71 09       	sbc	r23, r1
    29ce:	64 17       	cp	r22, r20
    29d0:	75 07       	cpc	r23, r21
    29d2:	8c f4       	brge	.+34     	; 0x29f6 <loadcell_min_max_tran+0x50>
    29d4:	62 89       	ldd	r22, Z+18	; 0x12
    29d6:	73 89       	ldd	r23, Z+19	; 0x13
    29d8:	67 2b       	or	r22, r23
    29da:	69 f0       	breq	.+26     	; 0x29f6 <loadcell_min_max_tran+0x50>
    29dc:	37 ff       	sbrs	r19, 7
    29de:	09 c0       	rjmp	.+18     	; 0x29f2 <loadcell_min_max_tran+0x4c>
    29e0:	4f 3f       	cpi	r20, 0xFF	; 255
    29e2:	27 e0       	ldi	r18, 0x07	; 7
    29e4:	52 07       	cpc	r21, r18
    29e6:	14 f4       	brge	.+4      	; 0x29ec <loadcell_min_max_tran+0x46>
    29e8:	9a 01       	movw	r18, r20
    29ea:	02 c0       	rjmp	.+4      	; 0x29f0 <loadcell_min_max_tran+0x4a>
    29ec:	2f ef       	ldi	r18, 0xFF	; 255
    29ee:	37 e0       	ldi	r19, 0x07	; 7
    29f0:	38 60       	ori	r19, 0x08	; 8
    29f2:	26 83       	std	Z+6, r18	; 0x06
    29f4:	37 83       	std	Z+7, r19	; 0x07
    29f6:	22 81       	ldd	r18, Z+2	; 0x02
    29f8:	33 81       	ldd	r19, Z+3	; 0x03
    29fa:	82 17       	cp	r24, r18
    29fc:	93 07       	cpc	r25, r19
    29fe:	10 f4       	brcc	.+4      	; 0x2a04 <loadcell_min_max_tran+0x5e>
    2a00:	82 83       	std	Z+2, r24	; 0x02
    2a02:	93 83       	std	Z+3, r25	; 0x03
    2a04:	24 81       	ldd	r18, Z+4	; 0x04
    2a06:	35 81       	ldd	r19, Z+5	; 0x05
    2a08:	28 17       	cp	r18, r24
    2a0a:	39 07       	cpc	r19, r25
    2a0c:	10 f4       	brcc	.+4      	; 0x2a12 <loadcell_min_max_tran+0x6c>
    2a0e:	84 83       	std	Z+4, r24	; 0x04
    2a10:	95 83       	std	Z+5, r25	; 0x05
    2a12:	08 95       	ret

00002a14 <reset_tx_data>:
    2a14:	fb 01       	movw	r30, r22
    2a16:	dc 01       	movw	r26, r24
    2a18:	90 e0       	ldi	r25, 0x00	; 0
    2a1a:	94 17       	cp	r25, r20
    2a1c:	31 f0       	breq	.+12     	; 0x2a2a <reset_tx_data+0x16>
    2a1e:	21 91       	ld	r18, Z+
    2a20:	31 91       	ld	r19, Z+
    2a22:	2d 93       	st	X+, r18
    2a24:	3d 93       	st	X+, r19
    2a26:	9f 5f       	subi	r25, 0xFF	; 255
    2a28:	f8 cf       	rjmp	.-16     	; 0x2a1a <reset_tx_data+0x6>
    2a2a:	08 95       	ret

00002a2c <radio_pins_init>:
    2a2c:	e0 e8       	ldi	r30, 0x80	; 128
    2a2e:	f6 e0       	ldi	r31, 0x06	; 6
    2a30:	80 81       	ld	r24, Z
    2a32:	80 64       	ori	r24, 0x40	; 64
    2a34:	80 83       	st	Z, r24
    2a36:	80 81       	ld	r24, Z
    2a38:	8f 77       	andi	r24, 0x7F	; 127
    2a3a:	80 83       	st	Z, r24
    2a3c:	08 95       	ret

00002a3e <radio_power_on>:
    2a3e:	cf 93       	push	r28
    2a40:	80 91 84 06 	lds	r24, 0x0684	; 0x800684 <__TEXT_REGION_LENGTH__+0x700684>
    2a44:	8f 7b       	andi	r24, 0xBF	; 191
    2a46:	80 93 84 06 	sts	0x0684, r24	; 0x800684 <__TEXT_REGION_LENGTH__+0x700684>
    2a4a:	6e e4       	ldi	r22, 0x4E	; 78
    2a4c:	71 e0       	ldi	r23, 0x01	; 1
    2a4e:	80 e0       	ldi	r24, 0x00	; 0
    2a50:	90 e0       	ldi	r25, 0x00	; 0
    2a52:	9b dd       	rcall	.-1226   	; 0x258a <__portable_avr_delay_cycles>
    2a54:	80 91 84 06 	lds	r24, 0x0684	; 0x800684 <__TEXT_REGION_LENGTH__+0x700684>
    2a58:	80 64       	ori	r24, 0x40	; 64
    2a5a:	80 93 84 06 	sts	0x0684, r24	; 0x800684 <__TEXT_REGION_LENGTH__+0x700684>
    2a5e:	66 e3       	ldi	r22, 0x36	; 54
    2a60:	72 e8       	ldi	r23, 0x82	; 130
    2a62:	80 e0       	ldi	r24, 0x00	; 0
    2a64:	90 e0       	ldi	r25, 0x00	; 0
    2a66:	91 dd       	rcall	.-1246   	; 0x258a <__portable_avr_delay_cycles>
    2a68:	80 91 84 06 	lds	r24, 0x0684	; 0x800684 <__TEXT_REGION_LENGTH__+0x700684>
    2a6c:	8f 7b       	andi	r24, 0xBF	; 191
    2a6e:	80 93 84 06 	sts	0x0684, r24	; 0x800684 <__TEXT_REGION_LENGTH__+0x700684>
    2a72:	6b ea       	ldi	r22, 0xAB	; 171
    2a74:	71 e1       	ldi	r23, 0x11	; 17
    2a76:	84 e0       	ldi	r24, 0x04	; 4
    2a78:	90 e0       	ldi	r25, 0x00	; 0
    2a7a:	87 dd       	rcall	.-1266   	; 0x258a <__portable_avr_delay_cycles>
    2a7c:	66 ed       	ldi	r22, 0xD6	; 214
    2a7e:	78 e0       	ldi	r23, 0x08	; 8
    2a80:	82 e0       	ldi	r24, 0x02	; 2
    2a82:	90 e0       	ldi	r25, 0x00	; 0
    2a84:	82 dd       	rcall	.-1276   	; 0x258a <__portable_avr_delay_cycles>
    2a86:	80 91 84 06 	lds	r24, 0x0684	; 0x800684 <__TEXT_REGION_LENGTH__+0x700684>
    2a8a:	80 64       	ori	r24, 0x40	; 64
    2a8c:	80 93 84 06 	sts	0x0684, r24	; 0x800684 <__TEXT_REGION_LENGTH__+0x700684>
    2a90:	c0 e0       	ldi	r28, 0x00	; 0
    2a92:	80 91 88 06 	lds	r24, 0x0688	; 0x800688 <__TEXT_REGION_LENGTH__+0x700688>
    2a96:	87 fd       	sbrc	r24, 7
    2a98:	09 c0       	rjmp	.+18     	; 0x2aac <radio_power_on+0x6e>
    2a9a:	cb 31       	cpi	r28, 0x1B	; 27
    2a9c:	38 f4       	brcc	.+14     	; 0x2aac <radio_power_on+0x6e>
    2a9e:	61 ea       	ldi	r22, 0xA1	; 161
    2aa0:	76 e8       	ldi	r23, 0x86	; 134
    2aa2:	81 e0       	ldi	r24, 0x01	; 1
    2aa4:	90 e0       	ldi	r25, 0x00	; 0
    2aa6:	71 dd       	rcall	.-1310   	; 0x258a <__portable_avr_delay_cycles>
    2aa8:	cf 5f       	subi	r28, 0xFF	; 255
    2aaa:	f3 cf       	rjmp	.-26     	; 0x2a92 <radio_power_on+0x54>
    2aac:	81 e0       	ldi	r24, 0x01	; 1
    2aae:	cb 31       	cpi	r28, 0x1B	; 27
    2ab0:	09 f0       	breq	.+2      	; 0x2ab4 <radio_power_on+0x76>
    2ab2:	80 e0       	ldi	r24, 0x00	; 0
    2ab4:	cf 91       	pop	r28
    2ab6:	08 95       	ret

00002ab8 <radio_power_down>:
    2ab8:	cf 93       	push	r28
    2aba:	df 93       	push	r29
    2abc:	c0 e8       	ldi	r28, 0x80	; 128
    2abe:	d6 e0       	ldi	r29, 0x06	; 6
    2ac0:	8c 81       	ldd	r24, Y+4	; 0x04
    2ac2:	8f 7b       	andi	r24, 0xBF	; 191
    2ac4:	8c 83       	std	Y+4, r24	; 0x04
    2ac6:	66 e1       	ldi	r22, 0x16	; 22
    2ac8:	76 e1       	ldi	r23, 0x16	; 22
    2aca:	85 e0       	ldi	r24, 0x05	; 5
    2acc:	90 e0       	ldi	r25, 0x00	; 0
    2ace:	5d dd       	rcall	.-1350   	; 0x258a <__portable_avr_delay_cycles>
    2ad0:	8c 81       	ldd	r24, Y+4	; 0x04
    2ad2:	80 64       	ori	r24, 0x40	; 64
    2ad4:	8c 83       	std	Y+4, r24	; 0x04
    2ad6:	66 e1       	ldi	r22, 0x16	; 22
    2ad8:	76 e1       	ldi	r23, 0x16	; 22
    2ada:	85 e0       	ldi	r24, 0x05	; 5
    2adc:	90 e0       	ldi	r25, 0x00	; 0
    2ade:	55 dd       	rcall	.-1366   	; 0x258a <__portable_avr_delay_cycles>
    2ae0:	8c 81       	ldd	r24, Y+4	; 0x04
    2ae2:	8f 7b       	andi	r24, 0xBF	; 191
    2ae4:	8c 83       	std	Y+4, r24	; 0x04
    2ae6:	88 85       	ldd	r24, Y+8	; 0x08
    2ae8:	80 e0       	ldi	r24, 0x00	; 0
    2aea:	df 91       	pop	r29
    2aec:	cf 91       	pop	r28
    2aee:	08 95       	ret

00002af0 <reset_char_array>:
    2af0:	28 2f       	mov	r18, r24
    2af2:	fc 01       	movw	r30, r24
    2af4:	8e 2f       	mov	r24, r30
    2af6:	82 1b       	sub	r24, r18
    2af8:	86 17       	cp	r24, r22
    2afa:	10 f4       	brcc	.+4      	; 0x2b00 <reset_char_array+0x10>
    2afc:	11 92       	st	Z+, r1
    2afe:	fa cf       	rjmp	.-12     	; 0x2af4 <reset_char_array+0x4>
    2b00:	08 95       	ret

00002b02 <data_to_char>:
    2b02:	2f 92       	push	r2
    2b04:	3f 92       	push	r3
    2b06:	4f 92       	push	r4
    2b08:	5f 92       	push	r5
    2b0a:	6f 92       	push	r6
    2b0c:	7f 92       	push	r7
    2b0e:	8f 92       	push	r8
    2b10:	9f 92       	push	r9
    2b12:	af 92       	push	r10
    2b14:	bf 92       	push	r11
    2b16:	cf 92       	push	r12
    2b18:	df 92       	push	r13
    2b1a:	ef 92       	push	r14
    2b1c:	ff 92       	push	r15
    2b1e:	0f 93       	push	r16
    2b20:	1f 93       	push	r17
    2b22:	cf 93       	push	r28
    2b24:	df 93       	push	r29
    2b26:	cd b7       	in	r28, 0x3d	; 61
    2b28:	de b7       	in	r29, 0x3e	; 62
    2b2a:	29 97       	sbiw	r28, 0x09	; 9
    2b2c:	cd bf       	out	0x3d, r28	; 61
    2b2e:	de bf       	out	0x3e, r29	; 62
    2b30:	6c 01       	movw	r12, r24
    2b32:	7a 01       	movw	r14, r20
    2b34:	59 01       	movw	r10, r18
    2b36:	19 82       	std	Y+1, r1	; 0x01
    2b38:	1a 82       	std	Y+2, r1	; 0x02
    2b3a:	fe 01       	movw	r30, r28
    2b3c:	33 96       	adiw	r30, 0x03	; 3
    2b3e:	83 e0       	ldi	r24, 0x03	; 3
    2b40:	df 01       	movw	r26, r30
    2b42:	1d 92       	st	X+, r1
    2b44:	8a 95       	dec	r24
    2b46:	e9 f7       	brne	.-6      	; 0x2b42 <data_to_char+0x40>
    2b48:	16 01       	movw	r2, r12
    2b4a:	86 01       	movw	r16, r12
    2b4c:	0c 5e       	subi	r16, 0xEC	; 236
    2b4e:	1f 4f       	sbci	r17, 0xFF	; 255
    2b50:	c9 01       	movw	r24, r18
    2b52:	33 0f       	add	r19, r19
    2b54:	aa 0b       	sbc	r26, r26
    2b56:	bb 0b       	sbc	r27, r27
    2b58:	8e 83       	std	Y+6, r24	; 0x06
    2b5a:	9f 83       	std	Y+7, r25	; 0x07
    2b5c:	a8 87       	std	Y+8, r26	; 0x08
    2b5e:	b9 87       	std	Y+9, r27	; 0x09
    2b60:	83 e0       	ldi	r24, 0x03	; 3
    2b62:	88 2e       	mov	r8, r24
    2b64:	91 2c       	mov	r9, r1
    2b66:	81 14       	cp	r8, r1
    2b68:	91 04       	cpc	r9, r1
    2b6a:	31 f1       	breq	.+76     	; 0x2bb8 <data_to_char+0xb6>
    2b6c:	b4 01       	movw	r22, r8
    2b6e:	09 2c       	mov	r0, r9
    2b70:	00 0c       	add	r0, r0
    2b72:	88 0b       	sbc	r24, r24
    2b74:	99 0b       	sbc	r25, r25
    2b76:	52 d4       	rcall	.+2212   	; 0x341c <__floatsisf>
    2b78:	2b 01       	movw	r4, r22
    2b7a:	3c 01       	movw	r6, r24
    2b7c:	6e 81       	ldd	r22, Y+6	; 0x06
    2b7e:	7f 81       	ldd	r23, Y+7	; 0x07
    2b80:	88 85       	ldd	r24, Y+8	; 0x08
    2b82:	99 85       	ldd	r25, Y+9	; 0x09
    2b84:	4b d4       	rcall	.+2198   	; 0x341c <__floatsisf>
    2b86:	a3 01       	movw	r20, r6
    2b88:	92 01       	movw	r18, r4
    2b8a:	4a d5       	rcall	.+2708   	; 0x3620 <pow>
    2b8c:	2b 01       	movw	r4, r22
    2b8e:	3c 01       	movw	r6, r24
    2b90:	d1 01       	movw	r26, r2
    2b92:	6d 91       	ld	r22, X+
    2b94:	7c 91       	ld	r23, X
    2b96:	80 e0       	ldi	r24, 0x00	; 0
    2b98:	90 e0       	ldi	r25, 0x00	; 0
    2b9a:	3e d4       	rcall	.+2172   	; 0x3418 <__floatunsisf>
    2b9c:	a3 01       	movw	r20, r6
    2b9e:	92 01       	movw	r18, r4
    2ba0:	95 d3       	rcall	.+1834   	; 0x32cc <__cmpsf2>
    2ba2:	87 ff       	sbrs	r24, 7
    2ba4:	05 c0       	rjmp	.+10     	; 0x2bb0 <data_to_char+0xae>
    2ba6:	64 e8       	ldi	r22, 0x84	; 132
    2ba8:	70 e2       	ldi	r23, 0x20	; 32
    2baa:	c7 01       	movw	r24, r14
    2bac:	0e 94 73 1e 	call	0x3ce6	; 0x3ce6 <strcat>
    2bb0:	b1 e0       	ldi	r27, 0x01	; 1
    2bb2:	8b 1a       	sub	r8, r27
    2bb4:	91 08       	sbc	r9, r1
    2bb6:	d7 cf       	rjmp	.-82     	; 0x2b66 <data_to_char+0x64>
    2bb8:	a5 01       	movw	r20, r10
    2bba:	be 01       	movw	r22, r28
    2bbc:	6f 5f       	subi	r22, 0xFF	; 255
    2bbe:	7f 4f       	sbci	r23, 0xFF	; 255
    2bc0:	f1 01       	movw	r30, r2
    2bc2:	81 91       	ld	r24, Z+
    2bc4:	91 91       	ld	r25, Z+
    2bc6:	1f 01       	movw	r2, r30
    2bc8:	0e 94 98 1e 	call	0x3d30	; 0x3d30 <itoa>
    2bcc:	be 01       	movw	r22, r28
    2bce:	6f 5f       	subi	r22, 0xFF	; 255
    2bd0:	7f 4f       	sbci	r23, 0xFF	; 255
    2bd2:	c7 01       	movw	r24, r14
    2bd4:	0e 94 73 1e 	call	0x3ce6	; 0x3ce6 <strcat>
    2bd8:	68 e7       	ldi	r22, 0x78	; 120
    2bda:	70 e2       	ldi	r23, 0x20	; 32
    2bdc:	c7 01       	movw	r24, r14
    2bde:	0e 94 73 1e 	call	0x3ce6	; 0x3ce6 <strcat>
    2be2:	65 e0       	ldi	r22, 0x05	; 5
    2be4:	ce 01       	movw	r24, r28
    2be6:	01 96       	adiw	r24, 0x01	; 1
    2be8:	83 df       	rcall	.-250    	; 0x2af0 <reset_char_array>
    2bea:	02 15       	cp	r16, r2
    2bec:	13 05       	cpc	r17, r3
    2bee:	09 f0       	breq	.+2      	; 0x2bf2 <data_to_char+0xf0>
    2bf0:	b7 cf       	rjmp	.-146    	; 0x2b60 <data_to_char+0x5e>
    2bf2:	f2 e2       	ldi	r31, 0x22	; 34
    2bf4:	cf 0e       	add	r12, r31
    2bf6:	d1 1c       	adc	r13, r1
    2bf8:	b5 01       	movw	r22, r10
    2bfa:	0b 2c       	mov	r0, r11
    2bfc:	00 0c       	add	r0, r0
    2bfe:	88 0b       	sbc	r24, r24
    2c00:	99 0b       	sbc	r25, r25
    2c02:	0c d4       	rcall	.+2072   	; 0x341c <__floatsisf>
    2c04:	2b 01       	movw	r4, r22
    2c06:	3c 01       	movw	r6, r24
    2c08:	48 01       	movw	r8, r16
    2c0a:	d8 01       	movw	r26, r16
    2c0c:	6d 91       	ld	r22, X+
    2c0e:	7c 91       	ld	r23, X
    2c10:	80 e0       	ldi	r24, 0x00	; 0
    2c12:	90 e0       	ldi	r25, 0x00	; 0
    2c14:	01 d4       	rcall	.+2050   	; 0x3418 <__floatunsisf>
    2c16:	9b 01       	movw	r18, r22
    2c18:	ac 01       	movw	r20, r24
    2c1a:	c3 01       	movw	r24, r6
    2c1c:	b2 01       	movw	r22, r4
    2c1e:	fc d4       	rcall	.+2552   	; 0x3618 <__gesf2>
    2c20:	18 16       	cp	r1, r24
    2c22:	2c f4       	brge	.+10     	; 0x2c2e <data_to_char+0x12c>
    2c24:	64 e8       	ldi	r22, 0x84	; 132
    2c26:	70 e2       	ldi	r23, 0x20	; 32
    2c28:	c7 01       	movw	r24, r14
    2c2a:	0e 94 73 1e 	call	0x3ce6	; 0x3ce6 <strcat>
    2c2e:	0e 5f       	subi	r16, 0xFE	; 254
    2c30:	1f 4f       	sbci	r17, 0xFF	; 255
    2c32:	a5 01       	movw	r20, r10
    2c34:	be 01       	movw	r22, r28
    2c36:	6f 5f       	subi	r22, 0xFF	; 255
    2c38:	7f 4f       	sbci	r23, 0xFF	; 255
    2c3a:	f4 01       	movw	r30, r8
    2c3c:	80 81       	ld	r24, Z
    2c3e:	91 81       	ldd	r25, Z+1	; 0x01
    2c40:	0e 94 98 1e 	call	0x3d30	; 0x3d30 <itoa>
    2c44:	be 01       	movw	r22, r28
    2c46:	6f 5f       	subi	r22, 0xFF	; 255
    2c48:	7f 4f       	sbci	r23, 0xFF	; 255
    2c4a:	c7 01       	movw	r24, r14
    2c4c:	0e 94 73 1e 	call	0x3ce6	; 0x3ce6 <strcat>
    2c50:	68 e7       	ldi	r22, 0x78	; 120
    2c52:	70 e2       	ldi	r23, 0x20	; 32
    2c54:	c7 01       	movw	r24, r14
    2c56:	0e 94 73 1e 	call	0x3ce6	; 0x3ce6 <strcat>
    2c5a:	65 e0       	ldi	r22, 0x05	; 5
    2c5c:	ce 01       	movw	r24, r28
    2c5e:	01 96       	adiw	r24, 0x01	; 1
    2c60:	47 df       	rcall	.-370    	; 0x2af0 <reset_char_array>
    2c62:	c0 16       	cp	r12, r16
    2c64:	d1 06       	cpc	r13, r17
    2c66:	81 f6       	brne	.-96     	; 0x2c08 <data_to_char+0x106>
    2c68:	29 96       	adiw	r28, 0x09	; 9
    2c6a:	cd bf       	out	0x3d, r28	; 61
    2c6c:	de bf       	out	0x3e, r29	; 62
    2c6e:	df 91       	pop	r29
    2c70:	cf 91       	pop	r28
    2c72:	1f 91       	pop	r17
    2c74:	0f 91       	pop	r16
    2c76:	ff 90       	pop	r15
    2c78:	ef 90       	pop	r14
    2c7a:	df 90       	pop	r13
    2c7c:	cf 90       	pop	r12
    2c7e:	bf 90       	pop	r11
    2c80:	af 90       	pop	r10
    2c82:	9f 90       	pop	r9
    2c84:	8f 90       	pop	r8
    2c86:	7f 90       	pop	r7
    2c88:	6f 90       	pop	r6
    2c8a:	5f 90       	pop	r5
    2c8c:	4f 90       	pop	r4
    2c8e:	3f 90       	pop	r3
    2c90:	2f 90       	pop	r2
    2c92:	08 95       	ret

00002c94 <reset_all_data>:
    2c94:	41 e1       	ldi	r20, 0x11	; 17
    2c96:	6d e0       	ldi	r22, 0x0D	; 13
    2c98:	70 e2       	ldi	r23, 0x20	; 32
    2c9a:	8b e2       	ldi	r24, 0x2B	; 43
    2c9c:	94 e2       	ldi	r25, 0x24	; 36
    2c9e:	ba de       	rcall	.-652    	; 0x2a14 <reset_tx_data>
    2ca0:	60 e8       	ldi	r22, 0x80	; 128
    2ca2:	86 e3       	ldi	r24, 0x36	; 54
    2ca4:	93 e2       	ldi	r25, 0x23	; 35
    2ca6:	24 df       	rcall	.-440    	; 0x2af0 <reset_char_array>
    2ca8:	60 e0       	ldi	r22, 0x00	; 0
    2caa:	86 e3       	ldi	r24, 0x36	; 54
    2cac:	92 e2       	ldi	r25, 0x22	; 34
    2cae:	20 cf       	rjmp	.-448    	; 0x2af0 <reset_char_array>

00002cb0 <at_get_radio_network_time>:
    2cb0:	ef 92       	push	r14
    2cb2:	ff 92       	push	r15
    2cb4:	0f 93       	push	r16
    2cb6:	1f 93       	push	r17
    2cb8:	cf 93       	push	r28
    2cba:	df 93       	push	r29
    2cbc:	00 d0       	rcall	.+0      	; 0x2cbe <at_get_radio_network_time+0xe>
    2cbe:	cd b7       	in	r28, 0x3d	; 61
    2cc0:	de b7       	in	r29, 0x3e	; 62
    2cc2:	19 82       	std	Y+1, r1	; 0x01
    2cc4:	1a 82       	std	Y+2, r1	; 0x02
    2cc6:	1b 82       	std	Y+3, r1	; 0x03
    2cc8:	3a ed       	ldi	r19, 0xDA	; 218
    2cca:	e3 2e       	mov	r14, r19
    2ccc:	33 e2       	ldi	r19, 0x23	; 35
    2cce:	f3 2e       	mov	r15, r19
    2cd0:	0a e0       	ldi	r16, 0x0A	; 10
    2cd2:	10 e0       	ldi	r17, 0x00	; 0
    2cd4:	f7 01       	movw	r30, r14
    2cd6:	31 97       	sbiw	r30, 0x01	; 1
    2cd8:	80 81       	ld	r24, Z
    2cda:	89 83       	std	Y+1, r24	; 0x01
    2cdc:	f7 01       	movw	r30, r14
    2cde:	80 81       	ld	r24, Z
    2ce0:	8a 83       	std	Y+2, r24	; 0x02
    2ce2:	ce 01       	movw	r24, r28
    2ce4:	01 96       	adiw	r24, 0x01	; 1
    2ce6:	d9 d7       	rcall	.+4018   	; 0x3c9a <atoi>
    2ce8:	f8 01       	movw	r30, r16
    2cea:	ee 0f       	add	r30, r30
    2cec:	ff 1f       	adc	r31, r31
    2cee:	e5 5d       	subi	r30, 0xD5	; 213
    2cf0:	fb 4d       	sbci	r31, 0xDB	; 219
    2cf2:	80 83       	st	Z, r24
    2cf4:	91 83       	std	Z+1, r25	; 0x01
    2cf6:	f3 e0       	ldi	r31, 0x03	; 3
    2cf8:	ef 0e       	add	r14, r31
    2cfa:	f1 1c       	adc	r15, r1
    2cfc:	0f 5f       	subi	r16, 0xFF	; 255
    2cfe:	1f 4f       	sbci	r17, 0xFF	; 255
    2d00:	00 31       	cpi	r16, 0x10	; 16
    2d02:	11 05       	cpc	r17, r1
    2d04:	39 f7       	brne	.-50     	; 0x2cd4 <at_get_radio_network_time+0x24>
    2d06:	23 96       	adiw	r28, 0x03	; 3
    2d08:	cd bf       	out	0x3d, r28	; 61
    2d0a:	de bf       	out	0x3e, r29	; 62
    2d0c:	df 91       	pop	r29
    2d0e:	cf 91       	pop	r28
    2d10:	1f 91       	pop	r17
    2d12:	0f 91       	pop	r16
    2d14:	ff 90       	pop	r15
    2d16:	ef 90       	pop	r14
    2d18:	08 95       	ret

00002d1a <tx_at_response>:
    2d1a:	af 92       	push	r10
    2d1c:	bf 92       	push	r11
    2d1e:	cf 92       	push	r12
    2d20:	df 92       	push	r13
    2d22:	ff 92       	push	r15
    2d24:	0f 93       	push	r16
    2d26:	1f 93       	push	r17
    2d28:	cf 93       	push	r28
    2d2a:	df 93       	push	r29
    2d2c:	6c 01       	movw	r12, r24
    2d2e:	5b 01       	movw	r10, r22
    2d30:	f2 2e       	mov	r15, r18
    2d32:	d0 e0       	ldi	r29, 0x00	; 0
    2d34:	c0 e0       	ldi	r28, 0x00	; 0
    2d36:	04 2f       	mov	r16, r20
    2d38:	10 e0       	ldi	r17, 0x00	; 0
    2d3a:	df 15       	cp	r29, r15
    2d3c:	e9 f0       	breq	.+58     	; 0x2d78 <tx_at_response+0x5e>
    2d3e:	64 e6       	ldi	r22, 0x64	; 100
    2d40:	87 ec       	ldi	r24, 0xC7	; 199
    2d42:	93 e2       	ldi	r25, 0x23	; 35
    2d44:	d5 de       	rcall	.-598    	; 0x2af0 <reset_char_array>
    2d46:	b6 01       	movw	r22, r12
    2d48:	80 ea       	ldi	r24, 0xA0	; 160
    2d4a:	98 e0       	ldi	r25, 0x08	; 8
    2d4c:	b4 dc       	rcall	.-1688   	; 0x26b6 <usart_tx_at>
    2d4e:	47 ec       	ldi	r20, 0xC7	; 199
    2d50:	53 e2       	ldi	r21, 0x23	; 35
    2d52:	b8 01       	movw	r22, r16
    2d54:	80 ea       	ldi	r24, 0xA0	; 160
    2d56:	98 e0       	ldi	r25, 0x08	; 8
    2d58:	e6 dc       	rcall	.-1588   	; 0x2726 <at_response>
    2d5a:	b5 01       	movw	r22, r10
    2d5c:	87 ec       	ldi	r24, 0xC7	; 199
    2d5e:	93 e2       	ldi	r25, 0x23	; 35
    2d60:	cd d7       	rcall	.+3994   	; 0x3cfc <strstr>
    2d62:	89 2b       	or	r24, r25
    2d64:	41 f4       	brne	.+16     	; 0x2d76 <tx_at_response+0x5c>
    2d66:	61 ea       	ldi	r22, 0xA1	; 161
    2d68:	76 e8       	ldi	r23, 0x86	; 134
    2d6a:	81 e0       	ldi	r24, 0x01	; 1
    2d6c:	90 e0       	ldi	r25, 0x00	; 0
    2d6e:	0d dc       	rcall	.-2022   	; 0x258a <__portable_avr_delay_cycles>
    2d70:	df 5f       	subi	r29, 0xFF	; 255
    2d72:	c1 e0       	ldi	r28, 0x01	; 1
    2d74:	e2 cf       	rjmp	.-60     	; 0x2d3a <tx_at_response+0x20>
    2d76:	c0 e0       	ldi	r28, 0x00	; 0
    2d78:	67 ec       	ldi	r22, 0xC7	; 199
    2d7a:	73 e2       	ldi	r23, 0x23	; 35
    2d7c:	80 ea       	ldi	r24, 0xA0	; 160
    2d7e:	9a e0       	ldi	r25, 0x0A	; 10
    2d80:	9a dc       	rcall	.-1740   	; 0x26b6 <usart_tx_at>
    2d82:	8c 2f       	mov	r24, r28
    2d84:	df 91       	pop	r29
    2d86:	cf 91       	pop	r28
    2d88:	1f 91       	pop	r17
    2d8a:	0f 91       	pop	r16
    2d8c:	ff 90       	pop	r15
    2d8e:	df 90       	pop	r13
    2d90:	cf 90       	pop	r12
    2d92:	bf 90       	pop	r11
    2d94:	af 90       	pop	r10
    2d96:	08 95       	ret

00002d98 <at_rf_connect>:
    2d98:	2b e1       	ldi	r18, 0x1B	; 27
    2d9a:	4c eb       	ldi	r20, 0xBC	; 188
    2d9c:	6a e7       	ldi	r22, 0x7A	; 122
    2d9e:	70 e2       	ldi	r23, 0x20	; 32
    2da0:	86 e8       	ldi	r24, 0x86	; 134
    2da2:	90 e2       	ldi	r25, 0x20	; 32
    2da4:	ba df       	rcall	.-140    	; 0x2d1a <tx_at_response>
    2da6:	81 11       	cpse	r24, r1
    2da8:	7f c0       	rjmp	.+254    	; 0x2ea8 <at_rf_connect+0x110>
    2daa:	29 e0       	ldi	r18, 0x09	; 9
    2dac:	4c eb       	ldi	r20, 0xBC	; 188
    2dae:	68 e6       	ldi	r22, 0x68	; 104
    2db0:	71 e2       	ldi	r23, 0x21	; 33
    2db2:	83 e9       	ldi	r24, 0x93	; 147
    2db4:	90 e2       	ldi	r25, 0x20	; 32
    2db6:	b1 df       	rcall	.-158    	; 0x2d1a <tx_at_response>
    2db8:	81 11       	cpse	r24, r1
    2dba:	76 c0       	rjmp	.+236    	; 0x2ea8 <at_rf_connect+0x110>
    2dbc:	29 e0       	ldi	r18, 0x09	; 9
    2dbe:	4c eb       	ldi	r20, 0xBC	; 188
    2dc0:	68 e6       	ldi	r22, 0x68	; 104
    2dc2:	71 e2       	ldi	r23, 0x21	; 33
    2dc4:	81 ea       	ldi	r24, 0xA1	; 161
    2dc6:	90 e2       	ldi	r25, 0x20	; 32
    2dc8:	a8 df       	rcall	.-176    	; 0x2d1a <tx_at_response>
    2dca:	81 11       	cpse	r24, r1
    2dcc:	6d c0       	rjmp	.+218    	; 0x2ea8 <at_rf_connect+0x110>
    2dce:	29 e0       	ldi	r18, 0x09	; 9
    2dd0:	4c eb       	ldi	r20, 0xBC	; 188
    2dd2:	68 e6       	ldi	r22, 0x68	; 104
    2dd4:	71 e2       	ldi	r23, 0x21	; 33
    2dd6:	89 ec       	ldi	r24, 0xC9	; 201
    2dd8:	90 e2       	ldi	r25, 0x20	; 32
    2dda:	9f df       	rcall	.-194    	; 0x2d1a <tx_at_response>
    2ddc:	81 11       	cpse	r24, r1
    2dde:	64 c0       	rjmp	.+200    	; 0x2ea8 <at_rf_connect+0x110>
    2de0:	29 e0       	ldi	r18, 0x09	; 9
    2de2:	4c eb       	ldi	r20, 0xBC	; 188
    2de4:	68 e6       	ldi	r22, 0x68	; 104
    2de6:	71 e2       	ldi	r23, 0x21	; 33
    2de8:	85 ed       	ldi	r24, 0xD5	; 213
    2dea:	90 e2       	ldi	r25, 0x20	; 32
    2dec:	96 df       	rcall	.-212    	; 0x2d1a <tx_at_response>
    2dee:	81 11       	cpse	r24, r1
    2df0:	5b c0       	rjmp	.+182    	; 0x2ea8 <at_rf_connect+0x110>
    2df2:	29 e0       	ldi	r18, 0x09	; 9
    2df4:	4c eb       	ldi	r20, 0xBC	; 188
    2df6:	68 e6       	ldi	r22, 0x68	; 104
    2df8:	71 e2       	ldi	r23, 0x21	; 33
    2dfa:	82 ee       	ldi	r24, 0xE2	; 226
    2dfc:	90 e2       	ldi	r25, 0x20	; 32
    2dfe:	8d df       	rcall	.-230    	; 0x2d1a <tx_at_response>
    2e00:	81 11       	cpse	r24, r1
    2e02:	52 c0       	rjmp	.+164    	; 0x2ea8 <at_rf_connect+0x110>
    2e04:	29 e0       	ldi	r18, 0x09	; 9
    2e06:	4c eb       	ldi	r20, 0xBC	; 188
    2e08:	68 e6       	ldi	r22, 0x68	; 104
    2e0a:	71 e2       	ldi	r23, 0x21	; 33
    2e0c:	80 ef       	ldi	r24, 0xF0	; 240
    2e0e:	90 e2       	ldi	r25, 0x20	; 32
    2e10:	84 df       	rcall	.-248    	; 0x2d1a <tx_at_response>
    2e12:	81 11       	cpse	r24, r1
    2e14:	49 c0       	rjmp	.+146    	; 0x2ea8 <at_rf_connect+0x110>
    2e16:	29 e0       	ldi	r18, 0x09	; 9
    2e18:	4c eb       	ldi	r20, 0xBC	; 188
    2e1a:	6d ef       	ldi	r22, 0xFD	; 253
    2e1c:	70 e2       	ldi	r23, 0x20	; 32
    2e1e:	86 e0       	ldi	r24, 0x06	; 6
    2e20:	91 e2       	ldi	r25, 0x21	; 33
    2e22:	7b df       	rcall	.-266    	; 0x2d1a <tx_at_response>
    2e24:	81 11       	cpse	r24, r1
    2e26:	40 c0       	rjmp	.+128    	; 0x2ea8 <at_rf_connect+0x110>
    2e28:	29 e0       	ldi	r18, 0x09	; 9
    2e2a:	40 e4       	ldi	r20, 0x40	; 64
    2e2c:	61 e1       	ldi	r22, 0x11	; 17
    2e2e:	71 e2       	ldi	r23, 0x21	; 33
    2e30:	87 e1       	ldi	r24, 0x17	; 23
    2e32:	91 e2       	ldi	r25, 0x21	; 33
    2e34:	72 df       	rcall	.-284    	; 0x2d1a <tx_at_response>
    2e36:	81 11       	cpse	r24, r1
    2e38:	37 c0       	rjmp	.+110    	; 0x2ea8 <at_rf_connect+0x110>
    2e3a:	29 e0       	ldi	r18, 0x09	; 9
    2e3c:	4c eb       	ldi	r20, 0xBC	; 188
    2e3e:	61 e2       	ldi	r22, 0x21	; 33
    2e40:	71 e2       	ldi	r23, 0x21	; 33
    2e42:	84 e2       	ldi	r24, 0x24	; 36
    2e44:	91 e2       	ldi	r25, 0x21	; 33
    2e46:	69 df       	rcall	.-302    	; 0x2d1a <tx_at_response>
    2e48:	81 11       	cpse	r24, r1
    2e4a:	2e c0       	rjmp	.+92     	; 0x2ea8 <at_rf_connect+0x110>
    2e4c:	29 e0       	ldi	r18, 0x09	; 9
    2e4e:	4c eb       	ldi	r20, 0xBC	; 188
    2e50:	61 e0       	ldi	r22, 0x01	; 1
    2e52:	70 e0       	ldi	r23, 0x00	; 0
    2e54:	86 e0       	ldi	r24, 0x06	; 6
    2e56:	91 e2       	ldi	r25, 0x21	; 33
    2e58:	60 df       	rcall	.-320    	; 0x2d1a <tx_at_response>
    2e5a:	81 11       	cpse	r24, r1
    2e5c:	25 c0       	rjmp	.+74     	; 0x2ea8 <at_rf_connect+0x110>
    2e5e:	29 e0       	ldi	r18, 0x09	; 9
    2e60:	40 e4       	ldi	r20, 0x40	; 64
    2e62:	68 e6       	ldi	r22, 0x68	; 104
    2e64:	71 e2       	ldi	r23, 0x21	; 33
    2e66:	80 e3       	ldi	r24, 0x30	; 48
    2e68:	91 e2       	ldi	r25, 0x21	; 33
    2e6a:	57 df       	rcall	.-338    	; 0x2d1a <tx_at_response>
    2e6c:	81 11       	cpse	r24, r1
    2e6e:	1c c0       	rjmp	.+56     	; 0x2ea8 <at_rf_connect+0x110>
    2e70:	29 e0       	ldi	r18, 0x09	; 9
    2e72:	4c eb       	ldi	r20, 0xBC	; 188
    2e74:	68 e6       	ldi	r22, 0x68	; 104
    2e76:	71 e2       	ldi	r23, 0x21	; 33
    2e78:	83 e5       	ldi	r24, 0x53	; 83
    2e7a:	91 e2       	ldi	r25, 0x21	; 33
    2e7c:	4e df       	rcall	.-356    	; 0x2d1a <tx_at_response>
    2e7e:	81 11       	cpse	r24, r1
    2e80:	13 c0       	rjmp	.+38     	; 0x2ea8 <at_rf_connect+0x110>
    2e82:	29 e0       	ldi	r18, 0x09	; 9
    2e84:	4c eb       	ldi	r20, 0xBC	; 188
    2e86:	60 e6       	ldi	r22, 0x60	; 96
    2e88:	71 e2       	ldi	r23, 0x21	; 33
    2e8a:	86 e0       	ldi	r24, 0x06	; 6
    2e8c:	91 e2       	ldi	r25, 0x21	; 33
    2e8e:	45 df       	rcall	.-374    	; 0x2d1a <tx_at_response>
    2e90:	81 11       	cpse	r24, r1
    2e92:	0a c0       	rjmp	.+20     	; 0x2ea8 <at_rf_connect+0x110>
    2e94:	29 e0       	ldi	r18, 0x09	; 9
    2e96:	4c eb       	ldi	r20, 0xBC	; 188
    2e98:	6b e6       	ldi	r22, 0x6B	; 107
    2e9a:	71 e2       	ldi	r23, 0x21	; 33
    2e9c:	82 e7       	ldi	r24, 0x72	; 114
    2e9e:	91 e2       	ldi	r25, 0x21	; 33
    2ea0:	3c df       	rcall	.-392    	; 0x2d1a <tx_at_response>
    2ea2:	81 11       	cpse	r24, r1
    2ea4:	03 c0       	rjmp	.+6      	; 0x2eac <at_rf_connect+0x114>
    2ea6:	04 df       	rcall	.-504    	; 0x2cb0 <at_get_radio_network_time>
    2ea8:	80 e0       	ldi	r24, 0x00	; 0
    2eaa:	08 95       	ret
    2eac:	80 e2       	ldi	r24, 0x20	; 32
    2eae:	08 95       	ret

00002eb0 <at_rf_disconnect>:
    2eb0:	29 e0       	ldi	r18, 0x09	; 9
    2eb2:	4c eb       	ldi	r20, 0xBC	; 188
    2eb4:	68 e6       	ldi	r22, 0x68	; 104
    2eb6:	71 e2       	ldi	r23, 0x21	; 33
    2eb8:	8b e7       	ldi	r24, 0x7B	; 123
    2eba:	91 e2       	ldi	r25, 0x21	; 33
    2ebc:	2e df       	rcall	.-420    	; 0x2d1a <tx_at_response>
    2ebe:	81 11       	cpse	r24, r1
    2ec0:	07 c0       	rjmp	.+14     	; 0x2ed0 <at_rf_disconnect+0x20>
    2ec2:	29 e0       	ldi	r18, 0x09	; 9
    2ec4:	40 e4       	ldi	r20, 0x40	; 64
    2ec6:	68 e6       	ldi	r22, 0x68	; 104
    2ec8:	71 e2       	ldi	r23, 0x21	; 33
    2eca:	87 e8       	ldi	r24, 0x87	; 135
    2ecc:	91 e2       	ldi	r25, 0x21	; 33
    2ece:	25 df       	rcall	.-438    	; 0x2d1a <tx_at_response>
    2ed0:	80 e0       	ldi	r24, 0x00	; 0
    2ed2:	08 95       	ret

00002ed4 <tx>:
    2ed4:	ef 92       	push	r14
    2ed6:	ff 92       	push	r15
    2ed8:	0f 93       	push	r16
    2eda:	1f 93       	push	r17
    2edc:	cf 93       	push	r28
    2ede:	df 93       	push	r29
    2ee0:	8c 01       	movw	r16, r24
    2ee2:	7b 01       	movw	r14, r22
    2ee4:	29 e0       	ldi	r18, 0x09	; 9
    2ee6:	4c eb       	ldi	r20, 0xBC	; 188
    2ee8:	63 e9       	ldi	r22, 0x93	; 147
    2eea:	71 e2       	ldi	r23, 0x21	; 33
    2eec:	85 e9       	ldi	r24, 0x95	; 149
    2eee:	91 e2       	ldi	r25, 0x21	; 33
    2ef0:	14 df       	rcall	.-472    	; 0x2d1a <tx_at_response>
    2ef2:	81 11       	cpse	r24, r1
    2ef4:	13 c0       	rjmp	.+38     	; 0x2f1c <tx+0x48>
    2ef6:	e8 01       	movw	r28, r16
    2ef8:	ce 01       	movw	r24, r28
    2efa:	80 1b       	sub	r24, r16
    2efc:	91 0b       	sbc	r25, r17
    2efe:	8e 15       	cp	r24, r14
    2f00:	9f 05       	cpc	r25, r15
    2f02:	2c f4       	brge	.+10     	; 0x2f0e <tx+0x3a>
    2f04:	69 91       	ld	r22, Y+
    2f06:	80 ea       	ldi	r24, 0xA0	; 160
    2f08:	9a e0       	ldi	r25, 0x0A	; 10
    2f0a:	2b da       	rcall	.-2986   	; 0x2362 <usart_putchar>
    2f0c:	f5 cf       	rjmp	.-22     	; 0x2ef8 <tx+0x24>
    2f0e:	29 e0       	ldi	r18, 0x09	; 9
    2f10:	4c eb       	ldi	r20, 0xBC	; 188
    2f12:	60 e0       	ldi	r22, 0x00	; 0
    2f14:	70 e0       	ldi	r23, 0x00	; 0
    2f16:	80 ea       	ldi	r24, 0xA0	; 160
    2f18:	91 e2       	ldi	r25, 0x21	; 33
    2f1a:	ff de       	rcall	.-514    	; 0x2d1a <tx_at_response>
    2f1c:	80 e0       	ldi	r24, 0x00	; 0
    2f1e:	df 91       	pop	r29
    2f20:	cf 91       	pop	r28
    2f22:	1f 91       	pop	r17
    2f24:	0f 91       	pop	r16
    2f26:	ff 90       	pop	r15
    2f28:	ef 90       	pop	r14
    2f2a:	08 95       	ret

00002f2c <__vector_10>:
    2f2c:	1f 92       	push	r1
    2f2e:	0f 92       	push	r0
    2f30:	0f b6       	in	r0, 0x3f	; 63
    2f32:	0f 92       	push	r0
    2f34:	11 24       	eor	r1, r1
    2f36:	08 b6       	in	r0, 0x38	; 56
    2f38:	0f 92       	push	r0
    2f3a:	18 be       	out	0x38, r1	; 56
    2f3c:	09 b6       	in	r0, 0x39	; 57
    2f3e:	0f 92       	push	r0
    2f40:	19 be       	out	0x39, r1	; 57
    2f42:	0a b6       	in	r0, 0x3a	; 58
    2f44:	0f 92       	push	r0
    2f46:	1a be       	out	0x3a, r1	; 58
    2f48:	0b b6       	in	r0, 0x3b	; 59
    2f4a:	0f 92       	push	r0
    2f4c:	1b be       	out	0x3b, r1	; 59
    2f4e:	cf 92       	push	r12
    2f50:	df 92       	push	r13
    2f52:	ef 92       	push	r14
    2f54:	ff 92       	push	r15
    2f56:	0f 93       	push	r16
    2f58:	1f 93       	push	r17
    2f5a:	2f 93       	push	r18
    2f5c:	3f 93       	push	r19
    2f5e:	4f 93       	push	r20
    2f60:	5f 93       	push	r21
    2f62:	6f 93       	push	r22
    2f64:	7f 93       	push	r23
    2f66:	8f 93       	push	r24
    2f68:	9f 93       	push	r25
    2f6a:	af 93       	push	r26
    2f6c:	bf 93       	push	r27
    2f6e:	cf 93       	push	r28
    2f70:	df 93       	push	r29
    2f72:	ef 93       	push	r30
    2f74:	ff 93       	push	r31
    2f76:	f8 94       	cli
    2f78:	81 e0       	ldi	r24, 0x01	; 1
    2f7a:	80 93 b6 23 	sts	0x23B6, r24	; 0x8023b6 <RTC_ISR_ACTIVE>
    2f7e:	82 e3       	ldi	r24, 0x32	; 50
    2f80:	90 e0       	ldi	r25, 0x00	; 0
    2f82:	03 dc       	rcall	.-2042   	; 0x278a <led_blink>
    2f84:	c9 e0       	ldi	r28, 0x09	; 9
    2f86:	d8 e0       	ldi	r29, 0x08	; 8
    2f88:	17 e0       	ldi	r17, 0x07	; 7
    2f8a:	06 e0       	ldi	r16, 0x06	; 6
    2f8c:	85 e0       	ldi	r24, 0x05	; 5
    2f8e:	f8 2e       	mov	r15, r24
    2f90:	94 e0       	ldi	r25, 0x04	; 4
    2f92:	e9 2e       	mov	r14, r25
    2f94:	23 e0       	ldi	r18, 0x03	; 3
    2f96:	d2 2e       	mov	r13, r18
    2f98:	32 e0       	ldi	r19, 0x02	; 2
    2f9a:	c3 2e       	mov	r12, r19
    2f9c:	80 91 b6 23 	lds	r24, 0x23B6	; 0x8023b6 <RTC_ISR_ACTIVE>
    2fa0:	81 30       	cpi	r24, 0x01	; 1
    2fa2:	09 f0       	breq	.+2      	; 0x2fa6 <__vector_10+0x7a>
    2fa4:	bc c0       	rjmp	.+376    	; 0x311e <__vector_10+0x1f2>
    2fa6:	80 91 bc 23 	lds	r24, 0x23BC	; 0x8023bc <controller_state>
    2faa:	90 e0       	ldi	r25, 0x00	; 0
    2fac:	8a 30       	cpi	r24, 0x0A	; 10
    2fae:	91 05       	cpc	r25, r1
    2fb0:	08 f0       	brcs	.+2      	; 0x2fb4 <__vector_10+0x88>
    2fb2:	ae c0       	rjmp	.+348    	; 0x3110 <__vector_10+0x1e4>
    2fb4:	fc 01       	movw	r30, r24
    2fb6:	88 27       	eor	r24, r24
    2fb8:	e2 50       	subi	r30, 0x02	; 2
    2fba:	ff 4f       	sbci	r31, 0xFF	; 255
    2fbc:	8f 4f       	sbci	r24, 0xFF	; 255
    2fbe:	92 c5       	rjmp	.+2852   	; 0x3ae4 <__tablejump2__>
    2fc0:	81 e0       	ldi	r24, 0x01	; 1
    2fc2:	80 93 bb 23 	sts	0x23BB, r24	; 0x8023bb <controller_next_state>
    2fc6:	a6 c0       	rjmp	.+332    	; 0x3114 <__vector_10+0x1e8>
    2fc8:	89 e0       	ldi	r24, 0x09	; 9
    2fca:	a5 dc       	rcall	.-1718   	; 0x2916 <adc_result_average>
    2fcc:	80 93 35 24 	sts	0x2435, r24	; 0x802435 <tx_data+0xa>
    2fd0:	90 93 36 24 	sts	0x2436, r25	; 0x802436 <tx_data+0xb>
    2fd4:	81 e0       	ldi	r24, 0x01	; 1
    2fd6:	9f dc       	rcall	.-1730   	; 0x2916 <adc_result_average>
    2fd8:	80 93 37 24 	sts	0x2437, r24	; 0x802437 <tx_data+0xc>
    2fdc:	90 93 38 24 	sts	0x2438, r25	; 0x802438 <tx_data+0xd>
    2fe0:	81 e0       	ldi	r24, 0x01	; 1
    2fe2:	99 dc       	rcall	.-1742   	; 0x2916 <adc_result_average>
    2fe4:	80 93 39 24 	sts	0x2439, r24	; 0x802439 <tx_data+0xe>
    2fe8:	90 93 3a 24 	sts	0x243A, r25	; 0x80243a <tx_data+0xf>
    2fec:	20 91 35 24 	lds	r18, 0x2435	; 0x802435 <tx_data+0xa>
    2ff0:	30 91 36 24 	lds	r19, 0x2436	; 0x802436 <tx_data+0xb>
    2ff4:	80 91 b7 23 	lds	r24, 0x23B7	; 0x8023b7 <accu_data>
    2ff8:	90 91 b8 23 	lds	r25, 0x23B8	; 0x8023b8 <accu_data+0x1>
    2ffc:	a0 91 b9 23 	lds	r26, 0x23B9	; 0x8023b9 <accu_data+0x2>
    3000:	b0 91 ba 23 	lds	r27, 0x23BA	; 0x8023ba <accu_data+0x3>
    3004:	82 0f       	add	r24, r18
    3006:	93 1f       	adc	r25, r19
    3008:	a1 1d       	adc	r26, r1
    300a:	b1 1d       	adc	r27, r1
    300c:	80 93 b7 23 	sts	0x23B7, r24	; 0x8023b7 <accu_data>
    3010:	90 93 b8 23 	sts	0x23B8, r25	; 0x8023b8 <accu_data+0x1>
    3014:	a0 93 b9 23 	sts	0x23B9, r26	; 0x8023b9 <accu_data+0x2>
    3018:	b0 93 ba 23 	sts	0x23BA, r27	; 0x8023ba <accu_data+0x3>
    301c:	80 91 35 24 	lds	r24, 0x2435	; 0x802435 <tx_data+0xa>
    3020:	90 91 36 24 	lds	r25, 0x2436	; 0x802436 <tx_data+0xb>
    3024:	6b e2       	ldi	r22, 0x2B	; 43
    3026:	74 e2       	ldi	r23, 0x24	; 36
    3028:	be dc       	rcall	.-1668   	; 0x29a6 <loadcell_min_max_tran>
    302a:	80 91 35 24 	lds	r24, 0x2435	; 0x802435 <tx_data+0xa>
    302e:	90 91 36 24 	lds	r25, 0x2436	; 0x802436 <tx_data+0xb>
    3032:	80 93 33 24 	sts	0x2433, r24	; 0x802433 <tx_data+0x8>
    3036:	90 93 34 24 	sts	0x2434, r25	; 0x802434 <tx_data+0x9>
    303a:	80 91 3d 24 	lds	r24, 0x243D	; 0x80243d <tx_data+0x12>
    303e:	90 91 3e 24 	lds	r25, 0x243E	; 0x80243e <tx_data+0x13>
    3042:	01 96       	adiw	r24, 0x01	; 1
    3044:	80 93 3d 24 	sts	0x243D, r24	; 0x80243d <tx_data+0x12>
    3048:	90 93 3e 24 	sts	0x243E, r25	; 0x80243e <tx_data+0x13>
    304c:	80 91 3d 24 	lds	r24, 0x243D	; 0x80243d <tx_data+0x12>
    3050:	90 91 3e 24 	lds	r25, 0x243E	; 0x80243e <tx_data+0x13>
    3054:	03 97       	sbiw	r24, 0x03	; 3
    3056:	08 f4       	brcc	.+2      	; 0x305a <__vector_10+0x12e>
    3058:	56 c0       	rjmp	.+172    	; 0x3106 <__vector_10+0x1da>
    305a:	c0 92 bb 23 	sts	0x23BB, r12	; 0x8023bb <controller_next_state>
    305e:	5a c0       	rjmp	.+180    	; 0x3114 <__vector_10+0x1e8>
    3060:	20 91 3d 24 	lds	r18, 0x243D	; 0x80243d <tx_data+0x12>
    3064:	30 91 3e 24 	lds	r19, 0x243E	; 0x80243e <tx_data+0x13>
    3068:	40 e0       	ldi	r20, 0x00	; 0
    306a:	50 e0       	ldi	r21, 0x00	; 0
    306c:	60 91 b7 23 	lds	r22, 0x23B7	; 0x8023b7 <accu_data>
    3070:	70 91 b8 23 	lds	r23, 0x23B8	; 0x8023b8 <accu_data+0x1>
    3074:	80 91 b9 23 	lds	r24, 0x23B9	; 0x8023b9 <accu_data+0x2>
    3078:	90 91 ba 23 	lds	r25, 0x23BA	; 0x8023ba <accu_data+0x3>
    307c:	11 d5       	rcall	.+2594   	; 0x3aa0 <__udivmodsi4>
    307e:	20 93 2b 24 	sts	0x242B, r18	; 0x80242b <tx_data>
    3082:	30 93 2c 24 	sts	0x242C, r19	; 0x80242c <tx_data+0x1>
    3086:	10 92 b7 23 	sts	0x23B7, r1	; 0x8023b7 <accu_data>
    308a:	10 92 b8 23 	sts	0x23B8, r1	; 0x8023b8 <accu_data+0x1>
    308e:	10 92 b9 23 	sts	0x23B9, r1	; 0x8023b9 <accu_data+0x2>
    3092:	10 92 ba 23 	sts	0x23BA, r1	; 0x8023ba <accu_data+0x3>
    3096:	d0 92 bb 23 	sts	0x23BB, r13	; 0x8023bb <controller_next_state>
    309a:	3c c0       	rjmp	.+120    	; 0x3114 <__vector_10+0x1e8>
    309c:	10 92 3d 24 	sts	0x243D, r1	; 0x80243d <tx_data+0x12>
    30a0:	10 92 3e 24 	sts	0x243E, r1	; 0x80243e <tx_data+0x13>
    30a4:	e0 92 bb 23 	sts	0x23BB, r14	; 0x8023bb <controller_next_state>
    30a8:	35 c0       	rjmp	.+106    	; 0x3114 <__vector_10+0x1e8>
    30aa:	c9 dc       	rcall	.-1646   	; 0x2a3e <radio_power_on>
    30ac:	75 de       	rcall	.-790    	; 0x2d98 <at_rf_connect>
    30ae:	f0 92 bb 23 	sts	0x23BB, r15	; 0x8023bb <controller_next_state>
    30b2:	30 c0       	rjmp	.+96     	; 0x3114 <__vector_10+0x1e8>
    30b4:	2a e0       	ldi	r18, 0x0A	; 10
    30b6:	30 e0       	ldi	r19, 0x00	; 0
    30b8:	46 e3       	ldi	r20, 0x36	; 54
    30ba:	53 e2       	ldi	r21, 0x23	; 35
    30bc:	61 e1       	ldi	r22, 0x11	; 17
    30be:	8b e2       	ldi	r24, 0x2B	; 43
    30c0:	94 e2       	ldi	r25, 0x24	; 36
    30c2:	1f dd       	rcall	.-1474   	; 0x2b02 <data_to_char>
    30c4:	40 e0       	ldi	r20, 0x00	; 0
    30c6:	51 e0       	ldi	r21, 0x01	; 1
    30c8:	66 e3       	ldi	r22, 0x36	; 54
    30ca:	72 e2       	ldi	r23, 0x22	; 34
    30cc:	86 e3       	ldi	r24, 0x36	; 54
    30ce:	93 e2       	ldi	r25, 0x23	; 35
    30d0:	67 da       	rcall	.-2866   	; 0x25a0 <mqtt_packet>
    30d2:	80 93 34 22 	sts	0x2234, r24	; 0x802234 <transfer_data_length_package>
    30d6:	90 93 35 22 	sts	0x2235, r25	; 0x802235 <transfer_data_length_package+0x1>
    30da:	00 93 bb 23 	sts	0x23BB, r16	; 0x8023bb <controller_next_state>
    30de:	1a c0       	rjmp	.+52     	; 0x3114 <__vector_10+0x1e8>
    30e0:	60 91 34 22 	lds	r22, 0x2234	; 0x802234 <transfer_data_length_package>
    30e4:	70 91 35 22 	lds	r23, 0x2235	; 0x802235 <transfer_data_length_package+0x1>
    30e8:	86 e3       	ldi	r24, 0x36	; 54
    30ea:	92 e2       	ldi	r25, 0x22	; 34
    30ec:	f3 de       	rcall	.-538    	; 0x2ed4 <tx>
    30ee:	10 93 bb 23 	sts	0x23BB, r17	; 0x8023bb <controller_next_state>
    30f2:	10 c0       	rjmp	.+32     	; 0x3114 <__vector_10+0x1e8>
    30f4:	d0 93 bb 23 	sts	0x23BB, r29	; 0x8023bb <controller_next_state>
    30f8:	0d c0       	rjmp	.+26     	; 0x3114 <__vector_10+0x1e8>
    30fa:	da de       	rcall	.-588    	; 0x2eb0 <at_rf_disconnect>
    30fc:	dd dc       	rcall	.-1606   	; 0x2ab8 <radio_power_down>
    30fe:	c0 93 bb 23 	sts	0x23BB, r28	; 0x8023bb <controller_next_state>
    3102:	08 c0       	rjmp	.+16     	; 0x3114 <__vector_10+0x1e8>
    3104:	c7 dd       	rcall	.-1138   	; 0x2c94 <reset_all_data>
    3106:	10 92 bb 23 	sts	0x23BB, r1	; 0x8023bb <controller_next_state>
    310a:	10 92 b6 23 	sts	0x23B6, r1	; 0x8023b6 <RTC_ISR_ACTIVE>
    310e:	02 c0       	rjmp	.+4      	; 0x3114 <__vector_10+0x1e8>
    3110:	c0 93 bb 23 	sts	0x23BB, r28	; 0x8023bb <controller_next_state>
    3114:	80 91 bb 23 	lds	r24, 0x23BB	; 0x8023bb <controller_next_state>
    3118:	80 93 bc 23 	sts	0x23BC, r24	; 0x8023bc <controller_state>
    311c:	3f cf       	rjmp	.-386    	; 0x2f9c <__vector_10+0x70>
    311e:	10 92 08 04 	sts	0x0408, r1	; 0x800408 <__TEXT_REGION_LENGTH__+0x700408>
    3122:	10 92 09 04 	sts	0x0409, r1	; 0x800409 <__TEXT_REGION_LENGTH__+0x700409>
    3126:	78 94       	sei
    3128:	ff 91       	pop	r31
    312a:	ef 91       	pop	r30
    312c:	df 91       	pop	r29
    312e:	cf 91       	pop	r28
    3130:	bf 91       	pop	r27
    3132:	af 91       	pop	r26
    3134:	9f 91       	pop	r25
    3136:	8f 91       	pop	r24
    3138:	7f 91       	pop	r23
    313a:	6f 91       	pop	r22
    313c:	5f 91       	pop	r21
    313e:	4f 91       	pop	r20
    3140:	3f 91       	pop	r19
    3142:	2f 91       	pop	r18
    3144:	1f 91       	pop	r17
    3146:	0f 91       	pop	r16
    3148:	ff 90       	pop	r15
    314a:	ef 90       	pop	r14
    314c:	df 90       	pop	r13
    314e:	cf 90       	pop	r12
    3150:	0f 90       	pop	r0
    3152:	0b be       	out	0x3b, r0	; 59
    3154:	0f 90       	pop	r0
    3156:	0a be       	out	0x3a, r0	; 58
    3158:	0f 90       	pop	r0
    315a:	09 be       	out	0x39, r0	; 57
    315c:	0f 90       	pop	r0
    315e:	08 be       	out	0x38, r0	; 56
    3160:	0f 90       	pop	r0
    3162:	0f be       	out	0x3f, r0	; 63
    3164:	0f 90       	pop	r0
    3166:	1f 90       	pop	r1
    3168:	18 95       	reti

0000316a <main>:
    316a:	cf 93       	push	r28
    316c:	df 93       	push	r29
    316e:	cd b7       	in	r28, 0x3d	; 61
    3170:	de b7       	in	r29, 0x3e	; 62
    3172:	2f 97       	sbiw	r28, 0x0f	; 15
    3174:	cd bf       	out	0x3d, r28	; 61
    3176:	de bf       	out	0x3e, r29	; 62
    3178:	f8 94       	cli
    317a:	0e 94 90 10 	call	0x2120	; 0x2120 <board_init>
    317e:	87 e0       	ldi	r24, 0x07	; 7
    3180:	80 93 a2 00 	sts	0x00A2, r24	; 0x8000a2 <__TEXT_REGION_LENGTH__+0x7000a2>
    3184:	0e 94 2c 10 	call	0x2058	; 0x2058 <sysclk_init>
    3188:	80 91 c0 07 	lds	r24, 0x07C0	; 0x8007c0 <__TEXT_REGION_LENGTH__+0x7007c0>
    318c:	88 60       	ori	r24, 0x08	; 8
    318e:	80 93 c0 07 	sts	0x07C0, r24	; 0x8007c0 <__TEXT_REGION_LENGTH__+0x7007c0>
    3192:	80 91 c4 07 	lds	r24, 0x07C4	; 0x8007c4 <__TEXT_REGION_LENGTH__+0x7007c4>
    3196:	88 60       	ori	r24, 0x08	; 8
    3198:	80 93 c4 07 	sts	0x07C4, r24	; 0x8007c4 <__TEXT_REGION_LENGTH__+0x7007c4>
    319c:	be 01       	movw	r22, r28
    319e:	6f 5f       	subi	r22, 0xFF	; 255
    31a0:	7f 4f       	sbci	r23, 0xFF	; 255
    31a2:	80 e0       	ldi	r24, 0x00	; 0
    31a4:	92 e0       	ldi	r25, 0x02	; 2
    31a6:	0e 94 26 04 	call	0x84c	; 0x84c <adc_read_configuration>
    31aa:	ae 01       	movw	r20, r28
    31ac:	44 5f       	subi	r20, 0xF4	; 244
    31ae:	5f 4f       	sbci	r21, 0xFF	; 255
    31b0:	61 e0       	ldi	r22, 0x01	; 1
    31b2:	80 e0       	ldi	r24, 0x00	; 0
    31b4:	92 e0       	ldi	r25, 0x02	; 2
    31b6:	0e 94 82 04 	call	0x904	; 0x904 <adcch_read_configuration>
    31ba:	ae 01       	movw	r20, r28
    31bc:	48 5f       	subi	r20, 0xF8	; 248
    31be:	5f 4f       	sbci	r21, 0xFF	; 255
    31c0:	62 e0       	ldi	r22, 0x02	; 2
    31c2:	80 e0       	ldi	r24, 0x00	; 0
    31c4:	92 e0       	ldi	r25, 0x02	; 2
    31c6:	0e 94 82 04 	call	0x904	; 0x904 <adcch_read_configuration>
    31ca:	9a 81       	ldd	r25, Y+2	; 0x02
    31cc:	8b 81       	ldd	r24, Y+3	; 0x03
    31ce:	8f 78       	andi	r24, 0x8F	; 143
    31d0:	80 61       	ori	r24, 0x10	; 16
    31d2:	8b 83       	std	Y+3, r24	; 0x03
    31d4:	89 2f       	mov	r24, r25
    31d6:	81 7e       	andi	r24, 0xE1	; 225
    31d8:	8a 83       	std	Y+2, r24	; 0x02
    31da:	1c 82       	std	Y+4, r1	; 0x04
    31dc:	82 e0       	ldi	r24, 0x02	; 2
    31de:	8d 83       	std	Y+5, r24	; 0x05
    31e0:	81 e0       	ldi	r24, 0x01	; 1
    31e2:	8c 87       	std	Y+12, r24	; 0x0c
    31e4:	1d 86       	std	Y+13, r1	; 0x0d
    31e6:	18 86       	std	Y+8, r1	; 0x08
    31e8:	88 e0       	ldi	r24, 0x08	; 8
    31ea:	89 87       	std	Y+9, r24	; 0x09
    31ec:	be 01       	movw	r22, r28
    31ee:	6f 5f       	subi	r22, 0xFF	; 255
    31f0:	7f 4f       	sbci	r23, 0xFF	; 255
    31f2:	80 e0       	ldi	r24, 0x00	; 0
    31f4:	92 e0       	ldi	r25, 0x02	; 2
    31f6:	0e 94 ca 03 	call	0x794	; 0x794 <adc_write_configuration>
    31fa:	ae 01       	movw	r20, r28
    31fc:	44 5f       	subi	r20, 0xF4	; 244
    31fe:	5f 4f       	sbci	r21, 0xFF	; 255
    3200:	61 e0       	ldi	r22, 0x01	; 1
    3202:	80 e0       	ldi	r24, 0x00	; 0
    3204:	92 e0       	ldi	r25, 0x02	; 2
    3206:	0e 94 4a 04 	call	0x894	; 0x894 <adcch_write_configuration>
    320a:	ae 01       	movw	r20, r28
    320c:	48 5f       	subi	r20, 0xF8	; 248
    320e:	5f 4f       	sbci	r21, 0xFF	; 255
    3210:	62 e0       	ldi	r22, 0x02	; 2
    3212:	80 e0       	ldi	r24, 0x00	; 0
    3214:	92 e0       	ldi	r25, 0x02	; 2
    3216:	0e 94 4a 04 	call	0x894	; 0x894 <adcch_write_configuration>
    321a:	80 e0       	ldi	r24, 0x00	; 0
    321c:	92 e0       	ldi	r25, 0x02	; 2
    321e:	0e 94 b9 01 	call	0x372	; 0x372 <adc_enable>
    3222:	66 e0       	ldi	r22, 0x06	; 6
    3224:	70 e2       	ldi	r23, 0x20	; 32
    3226:	80 ea       	ldi	r24, 0xA0	; 160
    3228:	9a e0       	ldi	r25, 0x0A	; 10
    322a:	86 d9       	rcall	.-3316   	; 0x2538 <usart_init_rs232>
    322c:	66 e0       	ldi	r22, 0x06	; 6
    322e:	70 e2       	ldi	r23, 0x20	; 32
    3230:	80 ea       	ldi	r24, 0xA0	; 160
    3232:	98 e0       	ldi	r25, 0x08	; 8
    3234:	81 d9       	rcall	.-3326   	; 0x2538 <usart_init_rs232>
    3236:	64 e0       	ldi	r22, 0x04	; 4
    3238:	83 e0       	ldi	r24, 0x03	; 3
    323a:	0e 94 3f 10 	call	0x207e	; 0x207e <sysclk_enable_module>
    323e:	64 e0       	ldi	r22, 0x04	; 4
    3240:	85 e0       	ldi	r24, 0x05	; 5
    3242:	0e 94 3f 10 	call	0x207e	; 0x207e <sysclk_enable_module>
    3246:	f2 db       	rcall	.-2076   	; 0x2a2c <radio_pins_init>
    3248:	66 e1       	ldi	r22, 0x16	; 22
    324a:	76 e1       	ldi	r23, 0x16	; 22
    324c:	85 e0       	ldi	r24, 0x05	; 5
    324e:	90 e0       	ldi	r25, 0x00	; 0
    3250:	9c d9       	rcall	.-3272   	; 0x258a <__portable_avr_delay_cycles>
    3252:	80 91 88 06 	lds	r24, 0x0688	; 0x800688 <__TEXT_REGION_LENGTH__+0x700688>
    3256:	87 fd       	sbrc	r24, 7
    3258:	2f dc       	rcall	.-1954   	; 0x2ab8 <radio_power_down>
    325a:	1c dd       	rcall	.-1480   	; 0x2c94 <reset_all_data>
    325c:	80 91 70 00 	lds	r24, 0x0070	; 0x800070 <__TEXT_REGION_LENGTH__+0x700070>
    3260:	8b 7f       	andi	r24, 0xFB	; 251
    3262:	80 93 70 00 	sts	0x0070, r24	; 0x800070 <__TEXT_REGION_LENGTH__+0x700070>
    3266:	10 92 bd 23 	sts	0x23BD, r1	; 0x8023bd <sleepmgr_locks>
    326a:	10 92 be 23 	sts	0x23BE, r1	; 0x8023be <sleepmgr_locks+0x1>
    326e:	10 92 bf 23 	sts	0x23BF, r1	; 0x8023bf <sleepmgr_locks+0x2>
    3272:	10 92 c0 23 	sts	0x23C0, r1	; 0x8023c0 <sleepmgr_locks+0x3>
    3276:	10 92 c1 23 	sts	0x23C1, r1	; 0x8023c1 <sleepmgr_locks+0x4>
    327a:	81 e0       	ldi	r24, 0x01	; 1
    327c:	80 93 c2 23 	sts	0x23C2, r24	; 0x8023c2 <sleepmgr_locks+0x5>
    3280:	81 e0       	ldi	r24, 0x01	; 1
    3282:	90 e0       	ldi	r25, 0x00	; 0
    3284:	18 db       	rcall	.-2512   	; 0x28b6 <rtc_init_period>
    3286:	78 94       	sei
    3288:	f8 94       	cli
    328a:	ad eb       	ldi	r26, 0xBD	; 189
    328c:	b3 e2       	ldi	r27, 0x23	; 35
    328e:	e0 e0       	ldi	r30, 0x00	; 0
    3290:	8d 91       	ld	r24, X+
    3292:	81 11       	cpse	r24, r1
    3294:	02 c0       	rjmp	.+4      	; 0x329a <main+0x130>
    3296:	ef 5f       	subi	r30, 0xFF	; 255
    3298:	fb cf       	rjmp	.-10     	; 0x3290 <main+0x126>
    329a:	ee 23       	and	r30, r30
    329c:	a1 f3       	breq	.-24     	; 0x3286 <main+0x11c>
    329e:	80 91 48 00 	lds	r24, 0x0048	; 0x800048 <__TEXT_REGION_LENGTH__+0x700048>
    32a2:	f0 e0       	ldi	r31, 0x00	; 0
    32a4:	e1 50       	subi	r30, 0x01	; 1
    32a6:	f0 4e       	sbci	r31, 0xE0	; 224
    32a8:	81 7f       	andi	r24, 0xF1	; 241
    32aa:	90 81       	ld	r25, Z
    32ac:	89 2b       	or	r24, r25
    32ae:	80 93 48 00 	sts	0x0048, r24	; 0x800048 <__TEXT_REGION_LENGTH__+0x700048>
    32b2:	80 91 48 00 	lds	r24, 0x0048	; 0x800048 <__TEXT_REGION_LENGTH__+0x700048>
    32b6:	81 60       	ori	r24, 0x01	; 1
    32b8:	80 93 48 00 	sts	0x0048, r24	; 0x800048 <__TEXT_REGION_LENGTH__+0x700048>
    32bc:	78 94       	sei
    32be:	88 95       	sleep
    32c0:	80 91 48 00 	lds	r24, 0x0048	; 0x800048 <__TEXT_REGION_LENGTH__+0x700048>
    32c4:	8e 7f       	andi	r24, 0xFE	; 254
    32c6:	80 93 48 00 	sts	0x0048, r24	; 0x800048 <__TEXT_REGION_LENGTH__+0x700048>
    32ca:	de cf       	rjmp	.-68     	; 0x3288 <main+0x11e>

000032cc <__cmpsf2>:
    32cc:	20 d1       	rcall	.+576    	; 0x350e <__fp_cmp>
    32ce:	08 f4       	brcc	.+2      	; 0x32d2 <__cmpsf2+0x6>
    32d0:	81 e0       	ldi	r24, 0x01	; 1
    32d2:	08 95       	ret

000032d4 <__divsf3>:
    32d4:	0c d0       	rcall	.+24     	; 0x32ee <__divsf3x>
    32d6:	66 c1       	rjmp	.+716    	; 0x35a4 <__fp_round>
    32d8:	5e d1       	rcall	.+700    	; 0x3596 <__fp_pscB>
    32da:	40 f0       	brcs	.+16     	; 0x32ec <__divsf3+0x18>
    32dc:	55 d1       	rcall	.+682    	; 0x3588 <__fp_pscA>
    32de:	30 f0       	brcs	.+12     	; 0x32ec <__divsf3+0x18>
    32e0:	21 f4       	brne	.+8      	; 0x32ea <__divsf3+0x16>
    32e2:	5f 3f       	cpi	r21, 0xFF	; 255
    32e4:	19 f0       	breq	.+6      	; 0x32ec <__divsf3+0x18>
    32e6:	37 c1       	rjmp	.+622    	; 0x3556 <__fp_inf>
    32e8:	51 11       	cpse	r21, r1
    32ea:	90 c1       	rjmp	.+800    	; 0x360c <__fp_szero>
    32ec:	3a c1       	rjmp	.+628    	; 0x3562 <__fp_nan>

000032ee <__divsf3x>:
    32ee:	6b d1       	rcall	.+726    	; 0x35c6 <__fp_split3>
    32f0:	98 f3       	brcs	.-26     	; 0x32d8 <__divsf3+0x4>

000032f2 <__divsf3_pse>:
    32f2:	99 23       	and	r25, r25
    32f4:	c9 f3       	breq	.-14     	; 0x32e8 <__divsf3+0x14>
    32f6:	55 23       	and	r21, r21
    32f8:	b1 f3       	breq	.-20     	; 0x32e6 <__divsf3+0x12>
    32fa:	95 1b       	sub	r25, r21
    32fc:	55 0b       	sbc	r21, r21
    32fe:	bb 27       	eor	r27, r27
    3300:	aa 27       	eor	r26, r26
    3302:	62 17       	cp	r22, r18
    3304:	73 07       	cpc	r23, r19
    3306:	84 07       	cpc	r24, r20
    3308:	38 f0       	brcs	.+14     	; 0x3318 <__divsf3_pse+0x26>
    330a:	9f 5f       	subi	r25, 0xFF	; 255
    330c:	5f 4f       	sbci	r21, 0xFF	; 255
    330e:	22 0f       	add	r18, r18
    3310:	33 1f       	adc	r19, r19
    3312:	44 1f       	adc	r20, r20
    3314:	aa 1f       	adc	r26, r26
    3316:	a9 f3       	breq	.-22     	; 0x3302 <__divsf3_pse+0x10>
    3318:	33 d0       	rcall	.+102    	; 0x3380 <__divsf3_pse+0x8e>
    331a:	0e 2e       	mov	r0, r30
    331c:	3a f0       	brmi	.+14     	; 0x332c <__divsf3_pse+0x3a>
    331e:	e0 e8       	ldi	r30, 0x80	; 128
    3320:	30 d0       	rcall	.+96     	; 0x3382 <__divsf3_pse+0x90>
    3322:	91 50       	subi	r25, 0x01	; 1
    3324:	50 40       	sbci	r21, 0x00	; 0
    3326:	e6 95       	lsr	r30
    3328:	00 1c       	adc	r0, r0
    332a:	ca f7       	brpl	.-14     	; 0x331e <__divsf3_pse+0x2c>
    332c:	29 d0       	rcall	.+82     	; 0x3380 <__divsf3_pse+0x8e>
    332e:	fe 2f       	mov	r31, r30
    3330:	27 d0       	rcall	.+78     	; 0x3380 <__divsf3_pse+0x8e>
    3332:	66 0f       	add	r22, r22
    3334:	77 1f       	adc	r23, r23
    3336:	88 1f       	adc	r24, r24
    3338:	bb 1f       	adc	r27, r27
    333a:	26 17       	cp	r18, r22
    333c:	37 07       	cpc	r19, r23
    333e:	48 07       	cpc	r20, r24
    3340:	ab 07       	cpc	r26, r27
    3342:	b0 e8       	ldi	r27, 0x80	; 128
    3344:	09 f0       	breq	.+2      	; 0x3348 <__divsf3_pse+0x56>
    3346:	bb 0b       	sbc	r27, r27
    3348:	80 2d       	mov	r24, r0
    334a:	bf 01       	movw	r22, r30
    334c:	ff 27       	eor	r31, r31
    334e:	93 58       	subi	r25, 0x83	; 131
    3350:	5f 4f       	sbci	r21, 0xFF	; 255
    3352:	2a f0       	brmi	.+10     	; 0x335e <__divsf3_pse+0x6c>
    3354:	9e 3f       	cpi	r25, 0xFE	; 254
    3356:	51 05       	cpc	r21, r1
    3358:	68 f0       	brcs	.+26     	; 0x3374 <__divsf3_pse+0x82>
    335a:	fd c0       	rjmp	.+506    	; 0x3556 <__fp_inf>
    335c:	57 c1       	rjmp	.+686    	; 0x360c <__fp_szero>
    335e:	5f 3f       	cpi	r21, 0xFF	; 255
    3360:	ec f3       	brlt	.-6      	; 0x335c <__divsf3_pse+0x6a>
    3362:	98 3e       	cpi	r25, 0xE8	; 232
    3364:	dc f3       	brlt	.-10     	; 0x335c <__divsf3_pse+0x6a>
    3366:	86 95       	lsr	r24
    3368:	77 95       	ror	r23
    336a:	67 95       	ror	r22
    336c:	b7 95       	ror	r27
    336e:	f7 95       	ror	r31
    3370:	9f 5f       	subi	r25, 0xFF	; 255
    3372:	c9 f7       	brne	.-14     	; 0x3366 <__divsf3_pse+0x74>
    3374:	88 0f       	add	r24, r24
    3376:	91 1d       	adc	r25, r1
    3378:	96 95       	lsr	r25
    337a:	87 95       	ror	r24
    337c:	97 f9       	bld	r25, 7
    337e:	08 95       	ret
    3380:	e1 e0       	ldi	r30, 0x01	; 1
    3382:	66 0f       	add	r22, r22
    3384:	77 1f       	adc	r23, r23
    3386:	88 1f       	adc	r24, r24
    3388:	bb 1f       	adc	r27, r27
    338a:	62 17       	cp	r22, r18
    338c:	73 07       	cpc	r23, r19
    338e:	84 07       	cpc	r24, r20
    3390:	ba 07       	cpc	r27, r26
    3392:	20 f0       	brcs	.+8      	; 0x339c <__divsf3_pse+0xaa>
    3394:	62 1b       	sub	r22, r18
    3396:	73 0b       	sbc	r23, r19
    3398:	84 0b       	sbc	r24, r20
    339a:	ba 0b       	sbc	r27, r26
    339c:	ee 1f       	adc	r30, r30
    339e:	88 f7       	brcc	.-30     	; 0x3382 <__divsf3_pse+0x90>
    33a0:	e0 95       	com	r30
    33a2:	08 95       	ret

000033a4 <__fixsfdi>:
    33a4:	be e3       	ldi	r27, 0x3E	; 62
    33a6:	04 d0       	rcall	.+8      	; 0x33b0 <__fixunssfdi+0x2>
    33a8:	08 f4       	brcc	.+2      	; 0x33ac <__fixsfdi+0x8>
    33aa:	90 e8       	ldi	r25, 0x80	; 128
    33ac:	08 95       	ret

000033ae <__fixunssfdi>:
    33ae:	bf e3       	ldi	r27, 0x3F	; 63
    33b0:	22 27       	eor	r18, r18
    33b2:	33 27       	eor	r19, r19
    33b4:	a9 01       	movw	r20, r18
    33b6:	0f d1       	rcall	.+542    	; 0x35d6 <__fp_splitA>
    33b8:	58 f1       	brcs	.+86     	; 0x3410 <__fixunssfdi+0x62>
    33ba:	9f 57       	subi	r25, 0x7F	; 127
    33bc:	40 f1       	brcs	.+80     	; 0x340e <__fixunssfdi+0x60>
    33be:	b9 17       	cp	r27, r25
    33c0:	38 f1       	brcs	.+78     	; 0x3410 <__fixunssfdi+0x62>
    33c2:	bf e3       	ldi	r27, 0x3F	; 63
    33c4:	b9 1b       	sub	r27, r25
    33c6:	99 27       	eor	r25, r25
    33c8:	b8 50       	subi	r27, 0x08	; 8
    33ca:	3a f4       	brpl	.+14     	; 0x33da <__fixunssfdi+0x2c>
    33cc:	66 0f       	add	r22, r22
    33ce:	77 1f       	adc	r23, r23
    33d0:	88 1f       	adc	r24, r24
    33d2:	99 1f       	adc	r25, r25
    33d4:	b3 95       	inc	r27
    33d6:	d2 f3       	brmi	.-12     	; 0x33cc <__fixunssfdi+0x1e>
    33d8:	16 c0       	rjmp	.+44     	; 0x3406 <__fixunssfdi+0x58>
    33da:	b8 50       	subi	r27, 0x08	; 8
    33dc:	4a f0       	brmi	.+18     	; 0x33f0 <__fixunssfdi+0x42>
    33de:	23 2f       	mov	r18, r19
    33e0:	34 2f       	mov	r19, r20
    33e2:	45 2f       	mov	r20, r21
    33e4:	56 2f       	mov	r21, r22
    33e6:	67 2f       	mov	r22, r23
    33e8:	78 2f       	mov	r23, r24
    33ea:	88 27       	eor	r24, r24
    33ec:	b8 50       	subi	r27, 0x08	; 8
    33ee:	ba f7       	brpl	.-18     	; 0x33de <__fixunssfdi+0x30>
    33f0:	b8 5f       	subi	r27, 0xF8	; 248
    33f2:	49 f0       	breq	.+18     	; 0x3406 <__fixunssfdi+0x58>
    33f4:	86 95       	lsr	r24
    33f6:	77 95       	ror	r23
    33f8:	67 95       	ror	r22
    33fa:	57 95       	ror	r21
    33fc:	47 95       	ror	r20
    33fe:	37 95       	ror	r19
    3400:	27 95       	ror	r18
    3402:	ba 95       	dec	r27
    3404:	b9 f7       	brne	.-18     	; 0x33f4 <__fixunssfdi+0x46>
    3406:	0e f4       	brtc	.+2      	; 0x340a <__fixunssfdi+0x5c>
    3408:	af d0       	rcall	.+350    	; 0x3568 <__fp_negdi>
    340a:	88 94       	clc
    340c:	08 95       	ret
    340e:	88 94       	clc
    3410:	60 e0       	ldi	r22, 0x00	; 0
    3412:	70 e0       	ldi	r23, 0x00	; 0
    3414:	cb 01       	movw	r24, r22
    3416:	08 95       	ret

00003418 <__floatunsisf>:
    3418:	e8 94       	clt
    341a:	09 c0       	rjmp	.+18     	; 0x342e <__floatsisf+0x12>

0000341c <__floatsisf>:
    341c:	97 fb       	bst	r25, 7
    341e:	3e f4       	brtc	.+14     	; 0x342e <__floatsisf+0x12>
    3420:	90 95       	com	r25
    3422:	80 95       	com	r24
    3424:	70 95       	com	r23
    3426:	61 95       	neg	r22
    3428:	7f 4f       	sbci	r23, 0xFF	; 255
    342a:	8f 4f       	sbci	r24, 0xFF	; 255
    342c:	9f 4f       	sbci	r25, 0xFF	; 255
    342e:	99 23       	and	r25, r25
    3430:	a9 f0       	breq	.+42     	; 0x345c <__floatsisf+0x40>
    3432:	f9 2f       	mov	r31, r25
    3434:	96 e9       	ldi	r25, 0x96	; 150
    3436:	bb 27       	eor	r27, r27
    3438:	93 95       	inc	r25
    343a:	f6 95       	lsr	r31
    343c:	87 95       	ror	r24
    343e:	77 95       	ror	r23
    3440:	67 95       	ror	r22
    3442:	b7 95       	ror	r27
    3444:	f1 11       	cpse	r31, r1
    3446:	f8 cf       	rjmp	.-16     	; 0x3438 <__floatsisf+0x1c>
    3448:	fa f4       	brpl	.+62     	; 0x3488 <__floatsisf+0x6c>
    344a:	bb 0f       	add	r27, r27
    344c:	11 f4       	brne	.+4      	; 0x3452 <__floatsisf+0x36>
    344e:	60 ff       	sbrs	r22, 0
    3450:	1b c0       	rjmp	.+54     	; 0x3488 <__floatsisf+0x6c>
    3452:	6f 5f       	subi	r22, 0xFF	; 255
    3454:	7f 4f       	sbci	r23, 0xFF	; 255
    3456:	8f 4f       	sbci	r24, 0xFF	; 255
    3458:	9f 4f       	sbci	r25, 0xFF	; 255
    345a:	16 c0       	rjmp	.+44     	; 0x3488 <__floatsisf+0x6c>
    345c:	88 23       	and	r24, r24
    345e:	11 f0       	breq	.+4      	; 0x3464 <__floatsisf+0x48>
    3460:	96 e9       	ldi	r25, 0x96	; 150
    3462:	11 c0       	rjmp	.+34     	; 0x3486 <__floatsisf+0x6a>
    3464:	77 23       	and	r23, r23
    3466:	21 f0       	breq	.+8      	; 0x3470 <__floatsisf+0x54>
    3468:	9e e8       	ldi	r25, 0x8E	; 142
    346a:	87 2f       	mov	r24, r23
    346c:	76 2f       	mov	r23, r22
    346e:	05 c0       	rjmp	.+10     	; 0x347a <__floatsisf+0x5e>
    3470:	66 23       	and	r22, r22
    3472:	71 f0       	breq	.+28     	; 0x3490 <__floatsisf+0x74>
    3474:	96 e8       	ldi	r25, 0x86	; 134
    3476:	86 2f       	mov	r24, r22
    3478:	70 e0       	ldi	r23, 0x00	; 0
    347a:	60 e0       	ldi	r22, 0x00	; 0
    347c:	2a f0       	brmi	.+10     	; 0x3488 <__floatsisf+0x6c>
    347e:	9a 95       	dec	r25
    3480:	66 0f       	add	r22, r22
    3482:	77 1f       	adc	r23, r23
    3484:	88 1f       	adc	r24, r24
    3486:	da f7       	brpl	.-10     	; 0x347e <__floatsisf+0x62>
    3488:	88 0f       	add	r24, r24
    348a:	96 95       	lsr	r25
    348c:	87 95       	ror	r24
    348e:	97 f9       	bld	r25, 7
    3490:	08 95       	ret

00003492 <__floatundisf>:
    3492:	e8 94       	clt

00003494 <__fp_di2sf>:
    3494:	f9 2f       	mov	r31, r25
    3496:	96 eb       	ldi	r25, 0xB6	; 182
    3498:	ff 23       	and	r31, r31
    349a:	81 f0       	breq	.+32     	; 0x34bc <__fp_di2sf+0x28>
    349c:	12 16       	cp	r1, r18
    349e:	13 06       	cpc	r1, r19
    34a0:	14 06       	cpc	r1, r20
    34a2:	44 0b       	sbc	r20, r20
    34a4:	93 95       	inc	r25
    34a6:	f6 95       	lsr	r31
    34a8:	87 95       	ror	r24
    34aa:	77 95       	ror	r23
    34ac:	67 95       	ror	r22
    34ae:	57 95       	ror	r21
    34b0:	40 40       	sbci	r20, 0x00	; 0
    34b2:	ff 23       	and	r31, r31
    34b4:	b9 f7       	brne	.-18     	; 0x34a4 <__fp_di2sf+0x10>
    34b6:	1b c0       	rjmp	.+54     	; 0x34ee <__fp_di2sf+0x5a>
    34b8:	99 27       	eor	r25, r25
    34ba:	08 95       	ret
    34bc:	88 23       	and	r24, r24
    34be:	51 f4       	brne	.+20     	; 0x34d4 <__fp_di2sf+0x40>
    34c0:	98 50       	subi	r25, 0x08	; 8
    34c2:	d2 f7       	brpl	.-12     	; 0x34b8 <__fp_di2sf+0x24>
    34c4:	87 2b       	or	r24, r23
    34c6:	76 2f       	mov	r23, r22
    34c8:	65 2f       	mov	r22, r21
    34ca:	54 2f       	mov	r21, r20
    34cc:	43 2f       	mov	r20, r19
    34ce:	32 2f       	mov	r19, r18
    34d0:	20 e0       	ldi	r18, 0x00	; 0
    34d2:	b1 f3       	breq	.-20     	; 0x34c0 <__fp_di2sf+0x2c>
    34d4:	12 16       	cp	r1, r18
    34d6:	13 06       	cpc	r1, r19
    34d8:	14 06       	cpc	r1, r20
    34da:	44 0b       	sbc	r20, r20
    34dc:	88 23       	and	r24, r24
    34de:	3a f0       	brmi	.+14     	; 0x34ee <__fp_di2sf+0x5a>
    34e0:	9a 95       	dec	r25
    34e2:	44 0f       	add	r20, r20
    34e4:	55 1f       	adc	r21, r21
    34e6:	66 1f       	adc	r22, r22
    34e8:	77 1f       	adc	r23, r23
    34ea:	88 1f       	adc	r24, r24
    34ec:	ca f7       	brpl	.-14     	; 0x34e0 <__fp_di2sf+0x4c>
    34ee:	55 23       	and	r21, r21
    34f0:	4a f4       	brpl	.+18     	; 0x3504 <__fp_di2sf+0x70>
    34f2:	44 0f       	add	r20, r20
    34f4:	55 1f       	adc	r21, r21
    34f6:	11 f4       	brne	.+4      	; 0x34fc <__fp_di2sf+0x68>
    34f8:	60 ff       	sbrs	r22, 0
    34fa:	04 c0       	rjmp	.+8      	; 0x3504 <__fp_di2sf+0x70>
    34fc:	6f 5f       	subi	r22, 0xFF	; 255
    34fe:	7f 4f       	sbci	r23, 0xFF	; 255
    3500:	8f 4f       	sbci	r24, 0xFF	; 255
    3502:	9f 4f       	sbci	r25, 0xFF	; 255
    3504:	88 0f       	add	r24, r24
    3506:	96 95       	lsr	r25
    3508:	87 95       	ror	r24
    350a:	97 f9       	bld	r25, 7
    350c:	08 95       	ret

0000350e <__fp_cmp>:
    350e:	99 0f       	add	r25, r25
    3510:	00 08       	sbc	r0, r0
    3512:	55 0f       	add	r21, r21
    3514:	aa 0b       	sbc	r26, r26
    3516:	e0 e8       	ldi	r30, 0x80	; 128
    3518:	fe ef       	ldi	r31, 0xFE	; 254
    351a:	16 16       	cp	r1, r22
    351c:	17 06       	cpc	r1, r23
    351e:	e8 07       	cpc	r30, r24
    3520:	f9 07       	cpc	r31, r25
    3522:	c0 f0       	brcs	.+48     	; 0x3554 <__fp_cmp+0x46>
    3524:	12 16       	cp	r1, r18
    3526:	13 06       	cpc	r1, r19
    3528:	e4 07       	cpc	r30, r20
    352a:	f5 07       	cpc	r31, r21
    352c:	98 f0       	brcs	.+38     	; 0x3554 <__fp_cmp+0x46>
    352e:	62 1b       	sub	r22, r18
    3530:	73 0b       	sbc	r23, r19
    3532:	84 0b       	sbc	r24, r20
    3534:	95 0b       	sbc	r25, r21
    3536:	39 f4       	brne	.+14     	; 0x3546 <__fp_cmp+0x38>
    3538:	0a 26       	eor	r0, r26
    353a:	61 f0       	breq	.+24     	; 0x3554 <__fp_cmp+0x46>
    353c:	23 2b       	or	r18, r19
    353e:	24 2b       	or	r18, r20
    3540:	25 2b       	or	r18, r21
    3542:	21 f4       	brne	.+8      	; 0x354c <__fp_cmp+0x3e>
    3544:	08 95       	ret
    3546:	0a 26       	eor	r0, r26
    3548:	09 f4       	brne	.+2      	; 0x354c <__fp_cmp+0x3e>
    354a:	a1 40       	sbci	r26, 0x01	; 1
    354c:	a6 95       	lsr	r26
    354e:	8f ef       	ldi	r24, 0xFF	; 255
    3550:	81 1d       	adc	r24, r1
    3552:	81 1d       	adc	r24, r1
    3554:	08 95       	ret

00003556 <__fp_inf>:
    3556:	97 f9       	bld	r25, 7
    3558:	9f 67       	ori	r25, 0x7F	; 127
    355a:	80 e8       	ldi	r24, 0x80	; 128
    355c:	70 e0       	ldi	r23, 0x00	; 0
    355e:	60 e0       	ldi	r22, 0x00	; 0
    3560:	08 95       	ret

00003562 <__fp_nan>:
    3562:	9f ef       	ldi	r25, 0xFF	; 255
    3564:	80 ec       	ldi	r24, 0xC0	; 192
    3566:	08 95       	ret

00003568 <__fp_negdi>:
    3568:	90 95       	com	r25
    356a:	80 95       	com	r24
    356c:	70 95       	com	r23
    356e:	60 95       	com	r22
    3570:	50 95       	com	r21
    3572:	40 95       	com	r20
    3574:	30 95       	com	r19
    3576:	21 95       	neg	r18
    3578:	3f 4f       	sbci	r19, 0xFF	; 255
    357a:	4f 4f       	sbci	r20, 0xFF	; 255
    357c:	5f 4f       	sbci	r21, 0xFF	; 255
    357e:	6f 4f       	sbci	r22, 0xFF	; 255
    3580:	7f 4f       	sbci	r23, 0xFF	; 255
    3582:	8f 4f       	sbci	r24, 0xFF	; 255
    3584:	9f 4f       	sbci	r25, 0xFF	; 255
    3586:	08 95       	ret

00003588 <__fp_pscA>:
    3588:	00 24       	eor	r0, r0
    358a:	0a 94       	dec	r0
    358c:	16 16       	cp	r1, r22
    358e:	17 06       	cpc	r1, r23
    3590:	18 06       	cpc	r1, r24
    3592:	09 06       	cpc	r0, r25
    3594:	08 95       	ret

00003596 <__fp_pscB>:
    3596:	00 24       	eor	r0, r0
    3598:	0a 94       	dec	r0
    359a:	12 16       	cp	r1, r18
    359c:	13 06       	cpc	r1, r19
    359e:	14 06       	cpc	r1, r20
    35a0:	05 06       	cpc	r0, r21
    35a2:	08 95       	ret

000035a4 <__fp_round>:
    35a4:	09 2e       	mov	r0, r25
    35a6:	03 94       	inc	r0
    35a8:	00 0c       	add	r0, r0
    35aa:	11 f4       	brne	.+4      	; 0x35b0 <__fp_round+0xc>
    35ac:	88 23       	and	r24, r24
    35ae:	52 f0       	brmi	.+20     	; 0x35c4 <__fp_round+0x20>
    35b0:	bb 0f       	add	r27, r27
    35b2:	40 f4       	brcc	.+16     	; 0x35c4 <__fp_round+0x20>
    35b4:	bf 2b       	or	r27, r31
    35b6:	11 f4       	brne	.+4      	; 0x35bc <__fp_round+0x18>
    35b8:	60 ff       	sbrs	r22, 0
    35ba:	04 c0       	rjmp	.+8      	; 0x35c4 <__fp_round+0x20>
    35bc:	6f 5f       	subi	r22, 0xFF	; 255
    35be:	7f 4f       	sbci	r23, 0xFF	; 255
    35c0:	8f 4f       	sbci	r24, 0xFF	; 255
    35c2:	9f 4f       	sbci	r25, 0xFF	; 255
    35c4:	08 95       	ret

000035c6 <__fp_split3>:
    35c6:	57 fd       	sbrc	r21, 7
    35c8:	90 58       	subi	r25, 0x80	; 128
    35ca:	44 0f       	add	r20, r20
    35cc:	55 1f       	adc	r21, r21
    35ce:	59 f0       	breq	.+22     	; 0x35e6 <__fp_splitA+0x10>
    35d0:	5f 3f       	cpi	r21, 0xFF	; 255
    35d2:	71 f0       	breq	.+28     	; 0x35f0 <__fp_splitA+0x1a>
    35d4:	47 95       	ror	r20

000035d6 <__fp_splitA>:
    35d6:	88 0f       	add	r24, r24
    35d8:	97 fb       	bst	r25, 7
    35da:	99 1f       	adc	r25, r25
    35dc:	61 f0       	breq	.+24     	; 0x35f6 <__fp_splitA+0x20>
    35de:	9f 3f       	cpi	r25, 0xFF	; 255
    35e0:	79 f0       	breq	.+30     	; 0x3600 <__fp_splitA+0x2a>
    35e2:	87 95       	ror	r24
    35e4:	08 95       	ret
    35e6:	12 16       	cp	r1, r18
    35e8:	13 06       	cpc	r1, r19
    35ea:	14 06       	cpc	r1, r20
    35ec:	55 1f       	adc	r21, r21
    35ee:	f2 cf       	rjmp	.-28     	; 0x35d4 <__fp_split3+0xe>
    35f0:	46 95       	lsr	r20
    35f2:	f1 df       	rcall	.-30     	; 0x35d6 <__fp_splitA>
    35f4:	08 c0       	rjmp	.+16     	; 0x3606 <__fp_splitA+0x30>
    35f6:	16 16       	cp	r1, r22
    35f8:	17 06       	cpc	r1, r23
    35fa:	18 06       	cpc	r1, r24
    35fc:	99 1f       	adc	r25, r25
    35fe:	f1 cf       	rjmp	.-30     	; 0x35e2 <__fp_splitA+0xc>
    3600:	86 95       	lsr	r24
    3602:	71 05       	cpc	r23, r1
    3604:	61 05       	cpc	r22, r1
    3606:	08 94       	sec
    3608:	08 95       	ret

0000360a <__fp_zero>:
    360a:	e8 94       	clt

0000360c <__fp_szero>:
    360c:	bb 27       	eor	r27, r27
    360e:	66 27       	eor	r22, r22
    3610:	77 27       	eor	r23, r23
    3612:	cb 01       	movw	r24, r22
    3614:	97 f9       	bld	r25, 7
    3616:	08 95       	ret

00003618 <__gesf2>:
    3618:	7a df       	rcall	.-268    	; 0x350e <__fp_cmp>
    361a:	08 f4       	brcc	.+2      	; 0x361e <__gesf2+0x6>
    361c:	8f ef       	ldi	r24, 0xFF	; 255
    361e:	08 95       	ret

00003620 <pow>:
    3620:	fa 01       	movw	r30, r20
    3622:	ee 0f       	add	r30, r30
    3624:	ff 1f       	adc	r31, r31
    3626:	30 96       	adiw	r30, 0x00	; 0
    3628:	21 05       	cpc	r18, r1
    362a:	31 05       	cpc	r19, r1
    362c:	99 f1       	breq	.+102    	; 0x3694 <pow+0x74>
    362e:	61 15       	cp	r22, r1
    3630:	71 05       	cpc	r23, r1
    3632:	61 f4       	brne	.+24     	; 0x364c <pow+0x2c>
    3634:	80 38       	cpi	r24, 0x80	; 128
    3636:	bf e3       	ldi	r27, 0x3F	; 63
    3638:	9b 07       	cpc	r25, r27
    363a:	49 f1       	breq	.+82     	; 0x368e <pow+0x6e>
    363c:	68 94       	set
    363e:	90 38       	cpi	r25, 0x80	; 128
    3640:	81 05       	cpc	r24, r1
    3642:	61 f0       	breq	.+24     	; 0x365c <pow+0x3c>
    3644:	80 38       	cpi	r24, 0x80	; 128
    3646:	bf ef       	ldi	r27, 0xFF	; 255
    3648:	9b 07       	cpc	r25, r27
    364a:	41 f0       	breq	.+16     	; 0x365c <pow+0x3c>
    364c:	99 23       	and	r25, r25
    364e:	42 f5       	brpl	.+80     	; 0x36a0 <pow+0x80>
    3650:	ff 3f       	cpi	r31, 0xFF	; 255
    3652:	e1 05       	cpc	r30, r1
    3654:	31 05       	cpc	r19, r1
    3656:	21 05       	cpc	r18, r1
    3658:	11 f1       	breq	.+68     	; 0x369e <pow+0x7e>
    365a:	e8 94       	clt
    365c:	08 94       	sec
    365e:	e7 95       	ror	r30
    3660:	d9 01       	movw	r26, r18
    3662:	aa 23       	and	r26, r26
    3664:	29 f4       	brne	.+10     	; 0x3670 <pow+0x50>
    3666:	ab 2f       	mov	r26, r27
    3668:	be 2f       	mov	r27, r30
    366a:	f8 5f       	subi	r31, 0xF8	; 248
    366c:	d0 f3       	brcs	.-12     	; 0x3662 <pow+0x42>
    366e:	10 c0       	rjmp	.+32     	; 0x3690 <pow+0x70>
    3670:	ff 5f       	subi	r31, 0xFF	; 255
    3672:	70 f4       	brcc	.+28     	; 0x3690 <pow+0x70>
    3674:	a6 95       	lsr	r26
    3676:	e0 f7       	brcc	.-8      	; 0x3670 <pow+0x50>
    3678:	f7 39       	cpi	r31, 0x97	; 151
    367a:	50 f0       	brcs	.+20     	; 0x3690 <pow+0x70>
    367c:	19 f0       	breq	.+6      	; 0x3684 <pow+0x64>
    367e:	ff 3a       	cpi	r31, 0xAF	; 175
    3680:	38 f4       	brcc	.+14     	; 0x3690 <pow+0x70>
    3682:	9f 77       	andi	r25, 0x7F	; 127
    3684:	9f 93       	push	r25
    3686:	0c d0       	rcall	.+24     	; 0x36a0 <pow+0x80>
    3688:	0f 90       	pop	r0
    368a:	07 fc       	sbrc	r0, 7
    368c:	90 58       	subi	r25, 0x80	; 128
    368e:	08 95       	ret
    3690:	3e f0       	brts	.+14     	; 0x36a0 <pow+0x80>
    3692:	67 cf       	rjmp	.-306    	; 0x3562 <__fp_nan>
    3694:	60 e0       	ldi	r22, 0x00	; 0
    3696:	70 e0       	ldi	r23, 0x00	; 0
    3698:	80 e8       	ldi	r24, 0x80	; 128
    369a:	9f e3       	ldi	r25, 0x3F	; 63
    369c:	08 95       	ret
    369e:	4f e7       	ldi	r20, 0x7F	; 127
    36a0:	9f 77       	andi	r25, 0x7F	; 127
    36a2:	5f 93       	push	r21
    36a4:	4f 93       	push	r20
    36a6:	3f 93       	push	r19
    36a8:	2f 93       	push	r18
    36aa:	9e d0       	rcall	.+316    	; 0x37e8 <log>
    36ac:	2f 91       	pop	r18
    36ae:	3f 91       	pop	r19
    36b0:	4f 91       	pop	r20
    36b2:	5f 91       	pop	r21
    36b4:	0c d1       	rcall	.+536    	; 0x38ce <__mulsf3>
    36b6:	05 c0       	rjmp	.+10     	; 0x36c2 <exp>
    36b8:	19 f4       	brne	.+6      	; 0x36c0 <pow+0xa0>
    36ba:	0e f0       	brts	.+2      	; 0x36be <pow+0x9e>
    36bc:	4c cf       	rjmp	.-360    	; 0x3556 <__fp_inf>
    36be:	a5 cf       	rjmp	.-182    	; 0x360a <__fp_zero>
    36c0:	50 cf       	rjmp	.-352    	; 0x3562 <__fp_nan>

000036c2 <exp>:
    36c2:	89 df       	rcall	.-238    	; 0x35d6 <__fp_splitA>
    36c4:	c8 f3       	brcs	.-14     	; 0x36b8 <pow+0x98>
    36c6:	96 38       	cpi	r25, 0x86	; 134
    36c8:	c0 f7       	brcc	.-16     	; 0x36ba <pow+0x9a>
    36ca:	07 f8       	bld	r0, 7
    36cc:	0f 92       	push	r0
    36ce:	e8 94       	clt
    36d0:	2b e3       	ldi	r18, 0x3B	; 59
    36d2:	3a ea       	ldi	r19, 0xAA	; 170
    36d4:	48 eb       	ldi	r20, 0xB8	; 184
    36d6:	5f e7       	ldi	r21, 0x7F	; 127
    36d8:	08 d1       	rcall	.+528    	; 0x38ea <__mulsf3_pse>
    36da:	0f 92       	push	r0
    36dc:	0f 92       	push	r0
    36de:	0f 92       	push	r0
    36e0:	4d b7       	in	r20, 0x3d	; 61
    36e2:	5e b7       	in	r21, 0x3e	; 62
    36e4:	0f 92       	push	r0
    36e6:	c0 d0       	rcall	.+384    	; 0x3868 <modf>
    36e8:	e0 e1       	ldi	r30, 0x10	; 16
    36ea:	f2 e0       	ldi	r31, 0x02	; 2
    36ec:	16 d0       	rcall	.+44     	; 0x371a <__fp_powser>
    36ee:	4f 91       	pop	r20
    36f0:	5f 91       	pop	r21
    36f2:	ef 91       	pop	r30
    36f4:	ff 91       	pop	r31
    36f6:	e5 95       	asr	r30
    36f8:	ee 1f       	adc	r30, r30
    36fa:	ff 1f       	adc	r31, r31
    36fc:	49 f0       	breq	.+18     	; 0x3710 <exp+0x4e>
    36fe:	fe 57       	subi	r31, 0x7E	; 126
    3700:	e0 68       	ori	r30, 0x80	; 128
    3702:	44 27       	eor	r20, r20
    3704:	ee 0f       	add	r30, r30
    3706:	44 1f       	adc	r20, r20
    3708:	fa 95       	dec	r31
    370a:	e1 f7       	brne	.-8      	; 0x3704 <exp+0x42>
    370c:	41 95       	neg	r20
    370e:	55 0b       	sbc	r21, r21
    3710:	32 d0       	rcall	.+100    	; 0x3776 <ldexp>
    3712:	0f 90       	pop	r0
    3714:	07 fe       	sbrs	r0, 7
    3716:	26 c0       	rjmp	.+76     	; 0x3764 <inverse>
    3718:	08 95       	ret

0000371a <__fp_powser>:
    371a:	df 93       	push	r29
    371c:	cf 93       	push	r28
    371e:	1f 93       	push	r17
    3720:	0f 93       	push	r16
    3722:	ff 92       	push	r15
    3724:	ef 92       	push	r14
    3726:	df 92       	push	r13
    3728:	7b 01       	movw	r14, r22
    372a:	8c 01       	movw	r16, r24
    372c:	68 94       	set
    372e:	05 c0       	rjmp	.+10     	; 0x373a <__fp_powser+0x20>
    3730:	da 2e       	mov	r13, r26
    3732:	ef 01       	movw	r28, r30
    3734:	d8 d0       	rcall	.+432    	; 0x38e6 <__mulsf3x>
    3736:	fe 01       	movw	r30, r28
    3738:	e8 94       	clt
    373a:	a5 91       	lpm	r26, Z+
    373c:	25 91       	lpm	r18, Z+
    373e:	35 91       	lpm	r19, Z+
    3740:	45 91       	lpm	r20, Z+
    3742:	55 91       	lpm	r21, Z+
    3744:	ae f3       	brts	.-22     	; 0x3730 <__fp_powser+0x16>
    3746:	ef 01       	movw	r28, r30
    3748:	37 d1       	rcall	.+622    	; 0x39b8 <__addsf3x>
    374a:	fe 01       	movw	r30, r28
    374c:	97 01       	movw	r18, r14
    374e:	a8 01       	movw	r20, r16
    3750:	da 94       	dec	r13
    3752:	79 f7       	brne	.-34     	; 0x3732 <__fp_powser+0x18>
    3754:	df 90       	pop	r13
    3756:	ef 90       	pop	r14
    3758:	ff 90       	pop	r15
    375a:	0f 91       	pop	r16
    375c:	1f 91       	pop	r17
    375e:	cf 91       	pop	r28
    3760:	df 91       	pop	r29
    3762:	08 95       	ret

00003764 <inverse>:
    3764:	9b 01       	movw	r18, r22
    3766:	ac 01       	movw	r20, r24
    3768:	60 e0       	ldi	r22, 0x00	; 0
    376a:	70 e0       	ldi	r23, 0x00	; 0
    376c:	80 e8       	ldi	r24, 0x80	; 128
    376e:	9f e3       	ldi	r25, 0x3F	; 63
    3770:	b1 cd       	rjmp	.-1182   	; 0x32d4 <__divsf3>
    3772:	f1 ce       	rjmp	.-542    	; 0x3556 <__fp_inf>
    3774:	74 c1       	rjmp	.+744    	; 0x3a5e <__fp_mpack>

00003776 <ldexp>:
    3776:	2f df       	rcall	.-418    	; 0x35d6 <__fp_splitA>
    3778:	e8 f3       	brcs	.-6      	; 0x3774 <inverse+0x10>
    377a:	99 23       	and	r25, r25
    377c:	d9 f3       	breq	.-10     	; 0x3774 <inverse+0x10>
    377e:	94 0f       	add	r25, r20
    3780:	51 1d       	adc	r21, r1
    3782:	bb f3       	brvs	.-18     	; 0x3772 <inverse+0xe>
    3784:	91 50       	subi	r25, 0x01	; 1
    3786:	50 40       	sbci	r21, 0x00	; 0
    3788:	94 f0       	brlt	.+36     	; 0x37ae <ldexp+0x38>
    378a:	59 f0       	breq	.+22     	; 0x37a2 <ldexp+0x2c>
    378c:	88 23       	and	r24, r24
    378e:	32 f0       	brmi	.+12     	; 0x379c <ldexp+0x26>
    3790:	66 0f       	add	r22, r22
    3792:	77 1f       	adc	r23, r23
    3794:	88 1f       	adc	r24, r24
    3796:	91 50       	subi	r25, 0x01	; 1
    3798:	50 40       	sbci	r21, 0x00	; 0
    379a:	c1 f7       	brne	.-16     	; 0x378c <ldexp+0x16>
    379c:	9e 3f       	cpi	r25, 0xFE	; 254
    379e:	51 05       	cpc	r21, r1
    37a0:	44 f7       	brge	.-48     	; 0x3772 <inverse+0xe>
    37a2:	88 0f       	add	r24, r24
    37a4:	91 1d       	adc	r25, r1
    37a6:	96 95       	lsr	r25
    37a8:	87 95       	ror	r24
    37aa:	97 f9       	bld	r25, 7
    37ac:	08 95       	ret
    37ae:	5f 3f       	cpi	r21, 0xFF	; 255
    37b0:	ac f0       	brlt	.+42     	; 0x37dc <ldexp+0x66>
    37b2:	98 3e       	cpi	r25, 0xE8	; 232
    37b4:	9c f0       	brlt	.+38     	; 0x37dc <ldexp+0x66>
    37b6:	bb 27       	eor	r27, r27
    37b8:	86 95       	lsr	r24
    37ba:	77 95       	ror	r23
    37bc:	67 95       	ror	r22
    37be:	b7 95       	ror	r27
    37c0:	08 f4       	brcc	.+2      	; 0x37c4 <ldexp+0x4e>
    37c2:	b1 60       	ori	r27, 0x01	; 1
    37c4:	93 95       	inc	r25
    37c6:	c1 f7       	brne	.-16     	; 0x37b8 <ldexp+0x42>
    37c8:	bb 0f       	add	r27, r27
    37ca:	58 f7       	brcc	.-42     	; 0x37a2 <ldexp+0x2c>
    37cc:	11 f4       	brne	.+4      	; 0x37d2 <ldexp+0x5c>
    37ce:	60 ff       	sbrs	r22, 0
    37d0:	e8 cf       	rjmp	.-48     	; 0x37a2 <ldexp+0x2c>
    37d2:	6f 5f       	subi	r22, 0xFF	; 255
    37d4:	7f 4f       	sbci	r23, 0xFF	; 255
    37d6:	8f 4f       	sbci	r24, 0xFF	; 255
    37d8:	9f 4f       	sbci	r25, 0xFF	; 255
    37da:	e3 cf       	rjmp	.-58     	; 0x37a2 <ldexp+0x2c>
    37dc:	17 cf       	rjmp	.-466    	; 0x360c <__fp_szero>
    37de:	0e f0       	brts	.+2      	; 0x37e2 <ldexp+0x6c>
    37e0:	3e c1       	rjmp	.+636    	; 0x3a5e <__fp_mpack>
    37e2:	bf ce       	rjmp	.-642    	; 0x3562 <__fp_nan>
    37e4:	68 94       	set
    37e6:	b7 ce       	rjmp	.-658    	; 0x3556 <__fp_inf>

000037e8 <log>:
    37e8:	f6 de       	rcall	.-532    	; 0x35d6 <__fp_splitA>
    37ea:	c8 f3       	brcs	.-14     	; 0x37de <ldexp+0x68>
    37ec:	99 23       	and	r25, r25
    37ee:	d1 f3       	breq	.-12     	; 0x37e4 <ldexp+0x6e>
    37f0:	c6 f3       	brts	.-16     	; 0x37e2 <ldexp+0x6c>
    37f2:	df 93       	push	r29
    37f4:	cf 93       	push	r28
    37f6:	1f 93       	push	r17
    37f8:	0f 93       	push	r16
    37fa:	ff 92       	push	r15
    37fc:	c9 2f       	mov	r28, r25
    37fe:	dd 27       	eor	r29, r29
    3800:	88 23       	and	r24, r24
    3802:	2a f0       	brmi	.+10     	; 0x380e <log+0x26>
    3804:	21 97       	sbiw	r28, 0x01	; 1
    3806:	66 0f       	add	r22, r22
    3808:	77 1f       	adc	r23, r23
    380a:	88 1f       	adc	r24, r24
    380c:	da f7       	brpl	.-10     	; 0x3804 <log+0x1c>
    380e:	20 e0       	ldi	r18, 0x00	; 0
    3810:	30 e0       	ldi	r19, 0x00	; 0
    3812:	40 e8       	ldi	r20, 0x80	; 128
    3814:	5f eb       	ldi	r21, 0xBF	; 191
    3816:	9f e3       	ldi	r25, 0x3F	; 63
    3818:	88 39       	cpi	r24, 0x98	; 152
    381a:	20 f0       	brcs	.+8      	; 0x3824 <log+0x3c>
    381c:	80 3e       	cpi	r24, 0xE0	; 224
    381e:	30 f0       	brcs	.+12     	; 0x382c <log+0x44>
    3820:	21 96       	adiw	r28, 0x01	; 1
    3822:	8f 77       	andi	r24, 0x7F	; 127
    3824:	b8 d0       	rcall	.+368    	; 0x3996 <__addsf3>
    3826:	e8 e3       	ldi	r30, 0x38	; 56
    3828:	f2 e0       	ldi	r31, 0x02	; 2
    382a:	03 c0       	rjmp	.+6      	; 0x3832 <log+0x4a>
    382c:	b4 d0       	rcall	.+360    	; 0x3996 <__addsf3>
    382e:	e5 e6       	ldi	r30, 0x65	; 101
    3830:	f2 e0       	ldi	r31, 0x02	; 2
    3832:	73 df       	rcall	.-282    	; 0x371a <__fp_powser>
    3834:	8b 01       	movw	r16, r22
    3836:	be 01       	movw	r22, r28
    3838:	ec 01       	movw	r28, r24
    383a:	fb 2e       	mov	r15, r27
    383c:	6f 57       	subi	r22, 0x7F	; 127
    383e:	71 09       	sbc	r23, r1
    3840:	75 95       	asr	r23
    3842:	77 1f       	adc	r23, r23
    3844:	88 0b       	sbc	r24, r24
    3846:	99 0b       	sbc	r25, r25
    3848:	e9 dd       	rcall	.-1070   	; 0x341c <__floatsisf>
    384a:	28 e1       	ldi	r18, 0x18	; 24
    384c:	32 e7       	ldi	r19, 0x72	; 114
    384e:	41 e3       	ldi	r20, 0x31	; 49
    3850:	5f e3       	ldi	r21, 0x3F	; 63
    3852:	49 d0       	rcall	.+146    	; 0x38e6 <__mulsf3x>
    3854:	af 2d       	mov	r26, r15
    3856:	98 01       	movw	r18, r16
    3858:	ae 01       	movw	r20, r28
    385a:	ff 90       	pop	r15
    385c:	0f 91       	pop	r16
    385e:	1f 91       	pop	r17
    3860:	cf 91       	pop	r28
    3862:	df 91       	pop	r29
    3864:	a9 d0       	rcall	.+338    	; 0x39b8 <__addsf3x>
    3866:	9e ce       	rjmp	.-708    	; 0x35a4 <__fp_round>

00003868 <modf>:
    3868:	fa 01       	movw	r30, r20
    386a:	dc 01       	movw	r26, r24
    386c:	aa 0f       	add	r26, r26
    386e:	bb 1f       	adc	r27, r27
    3870:	9b 01       	movw	r18, r22
    3872:	ac 01       	movw	r20, r24
    3874:	bf 57       	subi	r27, 0x7F	; 127
    3876:	28 f4       	brcc	.+10     	; 0x3882 <modf+0x1a>
    3878:	22 27       	eor	r18, r18
    387a:	33 27       	eor	r19, r19
    387c:	44 27       	eor	r20, r20
    387e:	50 78       	andi	r21, 0x80	; 128
    3880:	1f c0       	rjmp	.+62     	; 0x38c0 <modf+0x58>
    3882:	b7 51       	subi	r27, 0x17	; 23
    3884:	88 f4       	brcc	.+34     	; 0x38a8 <modf+0x40>
    3886:	ab 2f       	mov	r26, r27
    3888:	00 24       	eor	r0, r0
    388a:	46 95       	lsr	r20
    388c:	37 95       	ror	r19
    388e:	27 95       	ror	r18
    3890:	01 1c       	adc	r0, r1
    3892:	a3 95       	inc	r26
    3894:	d2 f3       	brmi	.-12     	; 0x388a <modf+0x22>
    3896:	00 20       	and	r0, r0
    3898:	69 f0       	breq	.+26     	; 0x38b4 <modf+0x4c>
    389a:	22 0f       	add	r18, r18
    389c:	33 1f       	adc	r19, r19
    389e:	44 1f       	adc	r20, r20
    38a0:	b3 95       	inc	r27
    38a2:	da f3       	brmi	.-10     	; 0x389a <modf+0x32>
    38a4:	0d d0       	rcall	.+26     	; 0x38c0 <modf+0x58>
    38a6:	76 c0       	rjmp	.+236    	; 0x3994 <__subsf3>
    38a8:	61 30       	cpi	r22, 0x01	; 1
    38aa:	71 05       	cpc	r23, r1
    38ac:	a0 e8       	ldi	r26, 0x80	; 128
    38ae:	8a 07       	cpc	r24, r26
    38b0:	b9 46       	sbci	r27, 0x69	; 105
    38b2:	30 f4       	brcc	.+12     	; 0x38c0 <modf+0x58>
    38b4:	9b 01       	movw	r18, r22
    38b6:	ac 01       	movw	r20, r24
    38b8:	66 27       	eor	r22, r22
    38ba:	77 27       	eor	r23, r23
    38bc:	88 27       	eor	r24, r24
    38be:	90 78       	andi	r25, 0x80	; 128
    38c0:	30 96       	adiw	r30, 0x00	; 0
    38c2:	21 f0       	breq	.+8      	; 0x38cc <modf+0x64>
    38c4:	20 83       	st	Z, r18
    38c6:	31 83       	std	Z+1, r19	; 0x01
    38c8:	42 83       	std	Z+2, r20	; 0x02
    38ca:	53 83       	std	Z+3, r21	; 0x03
    38cc:	08 95       	ret

000038ce <__mulsf3>:
    38ce:	0b d0       	rcall	.+22     	; 0x38e6 <__mulsf3x>
    38d0:	69 ce       	rjmp	.-814    	; 0x35a4 <__fp_round>
    38d2:	5a de       	rcall	.-844    	; 0x3588 <__fp_pscA>
    38d4:	28 f0       	brcs	.+10     	; 0x38e0 <__mulsf3+0x12>
    38d6:	5f de       	rcall	.-834    	; 0x3596 <__fp_pscB>
    38d8:	18 f0       	brcs	.+6      	; 0x38e0 <__mulsf3+0x12>
    38da:	95 23       	and	r25, r21
    38dc:	09 f0       	breq	.+2      	; 0x38e0 <__mulsf3+0x12>
    38de:	3b ce       	rjmp	.-906    	; 0x3556 <__fp_inf>
    38e0:	40 ce       	rjmp	.-896    	; 0x3562 <__fp_nan>
    38e2:	11 24       	eor	r1, r1
    38e4:	93 ce       	rjmp	.-730    	; 0x360c <__fp_szero>

000038e6 <__mulsf3x>:
    38e6:	6f de       	rcall	.-802    	; 0x35c6 <__fp_split3>
    38e8:	a0 f3       	brcs	.-24     	; 0x38d2 <__mulsf3+0x4>

000038ea <__mulsf3_pse>:
    38ea:	95 9f       	mul	r25, r21
    38ec:	d1 f3       	breq	.-12     	; 0x38e2 <__mulsf3+0x14>
    38ee:	95 0f       	add	r25, r21
    38f0:	50 e0       	ldi	r21, 0x00	; 0
    38f2:	55 1f       	adc	r21, r21
    38f4:	62 9f       	mul	r22, r18
    38f6:	f0 01       	movw	r30, r0
    38f8:	72 9f       	mul	r23, r18
    38fa:	bb 27       	eor	r27, r27
    38fc:	f0 0d       	add	r31, r0
    38fe:	b1 1d       	adc	r27, r1
    3900:	63 9f       	mul	r22, r19
    3902:	aa 27       	eor	r26, r26
    3904:	f0 0d       	add	r31, r0
    3906:	b1 1d       	adc	r27, r1
    3908:	aa 1f       	adc	r26, r26
    390a:	64 9f       	mul	r22, r20
    390c:	66 27       	eor	r22, r22
    390e:	b0 0d       	add	r27, r0
    3910:	a1 1d       	adc	r26, r1
    3912:	66 1f       	adc	r22, r22
    3914:	82 9f       	mul	r24, r18
    3916:	22 27       	eor	r18, r18
    3918:	b0 0d       	add	r27, r0
    391a:	a1 1d       	adc	r26, r1
    391c:	62 1f       	adc	r22, r18
    391e:	73 9f       	mul	r23, r19
    3920:	b0 0d       	add	r27, r0
    3922:	a1 1d       	adc	r26, r1
    3924:	62 1f       	adc	r22, r18
    3926:	83 9f       	mul	r24, r19
    3928:	a0 0d       	add	r26, r0
    392a:	61 1d       	adc	r22, r1
    392c:	22 1f       	adc	r18, r18
    392e:	74 9f       	mul	r23, r20
    3930:	33 27       	eor	r19, r19
    3932:	a0 0d       	add	r26, r0
    3934:	61 1d       	adc	r22, r1
    3936:	23 1f       	adc	r18, r19
    3938:	84 9f       	mul	r24, r20
    393a:	60 0d       	add	r22, r0
    393c:	21 1d       	adc	r18, r1
    393e:	82 2f       	mov	r24, r18
    3940:	76 2f       	mov	r23, r22
    3942:	6a 2f       	mov	r22, r26
    3944:	11 24       	eor	r1, r1
    3946:	9f 57       	subi	r25, 0x7F	; 127
    3948:	50 40       	sbci	r21, 0x00	; 0
    394a:	8a f0       	brmi	.+34     	; 0x396e <__mulsf3_pse+0x84>
    394c:	e1 f0       	breq	.+56     	; 0x3986 <__mulsf3_pse+0x9c>
    394e:	88 23       	and	r24, r24
    3950:	4a f0       	brmi	.+18     	; 0x3964 <__mulsf3_pse+0x7a>
    3952:	ee 0f       	add	r30, r30
    3954:	ff 1f       	adc	r31, r31
    3956:	bb 1f       	adc	r27, r27
    3958:	66 1f       	adc	r22, r22
    395a:	77 1f       	adc	r23, r23
    395c:	88 1f       	adc	r24, r24
    395e:	91 50       	subi	r25, 0x01	; 1
    3960:	50 40       	sbci	r21, 0x00	; 0
    3962:	a9 f7       	brne	.-22     	; 0x394e <__mulsf3_pse+0x64>
    3964:	9e 3f       	cpi	r25, 0xFE	; 254
    3966:	51 05       	cpc	r21, r1
    3968:	70 f0       	brcs	.+28     	; 0x3986 <__mulsf3_pse+0x9c>
    396a:	f5 cd       	rjmp	.-1046   	; 0x3556 <__fp_inf>
    396c:	4f ce       	rjmp	.-866    	; 0x360c <__fp_szero>
    396e:	5f 3f       	cpi	r21, 0xFF	; 255
    3970:	ec f3       	brlt	.-6      	; 0x396c <__mulsf3_pse+0x82>
    3972:	98 3e       	cpi	r25, 0xE8	; 232
    3974:	dc f3       	brlt	.-10     	; 0x396c <__mulsf3_pse+0x82>
    3976:	86 95       	lsr	r24
    3978:	77 95       	ror	r23
    397a:	67 95       	ror	r22
    397c:	b7 95       	ror	r27
    397e:	f7 95       	ror	r31
    3980:	e7 95       	ror	r30
    3982:	9f 5f       	subi	r25, 0xFF	; 255
    3984:	c1 f7       	brne	.-16     	; 0x3976 <__mulsf3_pse+0x8c>
    3986:	fe 2b       	or	r31, r30
    3988:	88 0f       	add	r24, r24
    398a:	91 1d       	adc	r25, r1
    398c:	96 95       	lsr	r25
    398e:	87 95       	ror	r24
    3990:	97 f9       	bld	r25, 7
    3992:	08 95       	ret

00003994 <__subsf3>:
    3994:	50 58       	subi	r21, 0x80	; 128

00003996 <__addsf3>:
    3996:	bb 27       	eor	r27, r27
    3998:	aa 27       	eor	r26, r26
    399a:	0e d0       	rcall	.+28     	; 0x39b8 <__addsf3x>
    399c:	03 ce       	rjmp	.-1018   	; 0x35a4 <__fp_round>
    399e:	f4 dd       	rcall	.-1048   	; 0x3588 <__fp_pscA>
    39a0:	30 f0       	brcs	.+12     	; 0x39ae <__addsf3+0x18>
    39a2:	f9 dd       	rcall	.-1038   	; 0x3596 <__fp_pscB>
    39a4:	20 f0       	brcs	.+8      	; 0x39ae <__addsf3+0x18>
    39a6:	31 f4       	brne	.+12     	; 0x39b4 <__addsf3+0x1e>
    39a8:	9f 3f       	cpi	r25, 0xFF	; 255
    39aa:	11 f4       	brne	.+4      	; 0x39b0 <__addsf3+0x1a>
    39ac:	1e f4       	brtc	.+6      	; 0x39b4 <__addsf3+0x1e>
    39ae:	d9 cd       	rjmp	.-1102   	; 0x3562 <__fp_nan>
    39b0:	0e f4       	brtc	.+2      	; 0x39b4 <__addsf3+0x1e>
    39b2:	e0 95       	com	r30
    39b4:	e7 fb       	bst	r30, 7
    39b6:	cf cd       	rjmp	.-1122   	; 0x3556 <__fp_inf>

000039b8 <__addsf3x>:
    39b8:	e9 2f       	mov	r30, r25
    39ba:	05 de       	rcall	.-1014   	; 0x35c6 <__fp_split3>
    39bc:	80 f3       	brcs	.-32     	; 0x399e <__addsf3+0x8>
    39be:	ba 17       	cp	r27, r26
    39c0:	62 07       	cpc	r22, r18
    39c2:	73 07       	cpc	r23, r19
    39c4:	84 07       	cpc	r24, r20
    39c6:	95 07       	cpc	r25, r21
    39c8:	18 f0       	brcs	.+6      	; 0x39d0 <__addsf3x+0x18>
    39ca:	71 f4       	brne	.+28     	; 0x39e8 <__addsf3x+0x30>
    39cc:	9e f5       	brtc	.+102    	; 0x3a34 <__addsf3x+0x7c>
    39ce:	1d ce       	rjmp	.-966    	; 0x360a <__fp_zero>
    39d0:	0e f4       	brtc	.+2      	; 0x39d4 <__addsf3x+0x1c>
    39d2:	e0 95       	com	r30
    39d4:	0b 2e       	mov	r0, r27
    39d6:	ba 2f       	mov	r27, r26
    39d8:	a0 2d       	mov	r26, r0
    39da:	0b 01       	movw	r0, r22
    39dc:	b9 01       	movw	r22, r18
    39de:	90 01       	movw	r18, r0
    39e0:	0c 01       	movw	r0, r24
    39e2:	ca 01       	movw	r24, r20
    39e4:	a0 01       	movw	r20, r0
    39e6:	11 24       	eor	r1, r1
    39e8:	ff 27       	eor	r31, r31
    39ea:	59 1b       	sub	r21, r25
    39ec:	99 f0       	breq	.+38     	; 0x3a14 <__addsf3x+0x5c>
    39ee:	59 3f       	cpi	r21, 0xF9	; 249
    39f0:	50 f4       	brcc	.+20     	; 0x3a06 <__addsf3x+0x4e>
    39f2:	50 3e       	cpi	r21, 0xE0	; 224
    39f4:	68 f1       	brcs	.+90     	; 0x3a50 <__addsf3x+0x98>
    39f6:	1a 16       	cp	r1, r26
    39f8:	f0 40       	sbci	r31, 0x00	; 0
    39fa:	a2 2f       	mov	r26, r18
    39fc:	23 2f       	mov	r18, r19
    39fe:	34 2f       	mov	r19, r20
    3a00:	44 27       	eor	r20, r20
    3a02:	58 5f       	subi	r21, 0xF8	; 248
    3a04:	f3 cf       	rjmp	.-26     	; 0x39ec <__addsf3x+0x34>
    3a06:	46 95       	lsr	r20
    3a08:	37 95       	ror	r19
    3a0a:	27 95       	ror	r18
    3a0c:	a7 95       	ror	r26
    3a0e:	f0 40       	sbci	r31, 0x00	; 0
    3a10:	53 95       	inc	r21
    3a12:	c9 f7       	brne	.-14     	; 0x3a06 <__addsf3x+0x4e>
    3a14:	7e f4       	brtc	.+30     	; 0x3a34 <__addsf3x+0x7c>
    3a16:	1f 16       	cp	r1, r31
    3a18:	ba 0b       	sbc	r27, r26
    3a1a:	62 0b       	sbc	r22, r18
    3a1c:	73 0b       	sbc	r23, r19
    3a1e:	84 0b       	sbc	r24, r20
    3a20:	ba f0       	brmi	.+46     	; 0x3a50 <__addsf3x+0x98>
    3a22:	91 50       	subi	r25, 0x01	; 1
    3a24:	a1 f0       	breq	.+40     	; 0x3a4e <__addsf3x+0x96>
    3a26:	ff 0f       	add	r31, r31
    3a28:	bb 1f       	adc	r27, r27
    3a2a:	66 1f       	adc	r22, r22
    3a2c:	77 1f       	adc	r23, r23
    3a2e:	88 1f       	adc	r24, r24
    3a30:	c2 f7       	brpl	.-16     	; 0x3a22 <__addsf3x+0x6a>
    3a32:	0e c0       	rjmp	.+28     	; 0x3a50 <__addsf3x+0x98>
    3a34:	ba 0f       	add	r27, r26
    3a36:	62 1f       	adc	r22, r18
    3a38:	73 1f       	adc	r23, r19
    3a3a:	84 1f       	adc	r24, r20
    3a3c:	48 f4       	brcc	.+18     	; 0x3a50 <__addsf3x+0x98>
    3a3e:	87 95       	ror	r24
    3a40:	77 95       	ror	r23
    3a42:	67 95       	ror	r22
    3a44:	b7 95       	ror	r27
    3a46:	f7 95       	ror	r31
    3a48:	9e 3f       	cpi	r25, 0xFE	; 254
    3a4a:	08 f0       	brcs	.+2      	; 0x3a4e <__addsf3x+0x96>
    3a4c:	b3 cf       	rjmp	.-154    	; 0x39b4 <__addsf3+0x1e>
    3a4e:	93 95       	inc	r25
    3a50:	88 0f       	add	r24, r24
    3a52:	08 f0       	brcs	.+2      	; 0x3a56 <__addsf3x+0x9e>
    3a54:	99 27       	eor	r25, r25
    3a56:	ee 0f       	add	r30, r30
    3a58:	97 95       	ror	r25
    3a5a:	87 95       	ror	r24
    3a5c:	08 95       	ret

00003a5e <__fp_mpack>:
    3a5e:	9f 3f       	cpi	r25, 0xFF	; 255
    3a60:	31 f0       	breq	.+12     	; 0x3a6e <__fp_mpack_finite+0xc>

00003a62 <__fp_mpack_finite>:
    3a62:	91 50       	subi	r25, 0x01	; 1
    3a64:	20 f4       	brcc	.+8      	; 0x3a6e <__fp_mpack_finite+0xc>
    3a66:	87 95       	ror	r24
    3a68:	77 95       	ror	r23
    3a6a:	67 95       	ror	r22
    3a6c:	b7 95       	ror	r27
    3a6e:	88 0f       	add	r24, r24
    3a70:	91 1d       	adc	r25, r1
    3a72:	96 95       	lsr	r25
    3a74:	87 95       	ror	r24
    3a76:	97 f9       	bld	r25, 7
    3a78:	08 95       	ret

00003a7a <__divmodhi4>:
    3a7a:	97 fb       	bst	r25, 7
    3a7c:	07 2e       	mov	r0, r23
    3a7e:	16 f4       	brtc	.+4      	; 0x3a84 <__divmodhi4+0xa>
    3a80:	00 94       	com	r0
    3a82:	06 d0       	rcall	.+12     	; 0x3a90 <__divmodhi4_neg1>
    3a84:	77 fd       	sbrc	r23, 7
    3a86:	08 d0       	rcall	.+16     	; 0x3a98 <__divmodhi4_neg2>
    3a88:	e5 d0       	rcall	.+458    	; 0x3c54 <__udivmodhi4>
    3a8a:	07 fc       	sbrc	r0, 7
    3a8c:	05 d0       	rcall	.+10     	; 0x3a98 <__divmodhi4_neg2>
    3a8e:	3e f4       	brtc	.+14     	; 0x3a9e <__divmodhi4_exit>

00003a90 <__divmodhi4_neg1>:
    3a90:	90 95       	com	r25
    3a92:	81 95       	neg	r24
    3a94:	9f 4f       	sbci	r25, 0xFF	; 255
    3a96:	08 95       	ret

00003a98 <__divmodhi4_neg2>:
    3a98:	70 95       	com	r23
    3a9a:	61 95       	neg	r22
    3a9c:	7f 4f       	sbci	r23, 0xFF	; 255

00003a9e <__divmodhi4_exit>:
    3a9e:	08 95       	ret

00003aa0 <__udivmodsi4>:
    3aa0:	a1 e2       	ldi	r26, 0x21	; 33
    3aa2:	1a 2e       	mov	r1, r26
    3aa4:	aa 1b       	sub	r26, r26
    3aa6:	bb 1b       	sub	r27, r27
    3aa8:	fd 01       	movw	r30, r26
    3aaa:	0d c0       	rjmp	.+26     	; 0x3ac6 <__udivmodsi4_ep>

00003aac <__udivmodsi4_loop>:
    3aac:	aa 1f       	adc	r26, r26
    3aae:	bb 1f       	adc	r27, r27
    3ab0:	ee 1f       	adc	r30, r30
    3ab2:	ff 1f       	adc	r31, r31
    3ab4:	a2 17       	cp	r26, r18
    3ab6:	b3 07       	cpc	r27, r19
    3ab8:	e4 07       	cpc	r30, r20
    3aba:	f5 07       	cpc	r31, r21
    3abc:	20 f0       	brcs	.+8      	; 0x3ac6 <__udivmodsi4_ep>
    3abe:	a2 1b       	sub	r26, r18
    3ac0:	b3 0b       	sbc	r27, r19
    3ac2:	e4 0b       	sbc	r30, r20
    3ac4:	f5 0b       	sbc	r31, r21

00003ac6 <__udivmodsi4_ep>:
    3ac6:	66 1f       	adc	r22, r22
    3ac8:	77 1f       	adc	r23, r23
    3aca:	88 1f       	adc	r24, r24
    3acc:	99 1f       	adc	r25, r25
    3ace:	1a 94       	dec	r1
    3ad0:	69 f7       	brne	.-38     	; 0x3aac <__udivmodsi4_loop>
    3ad2:	60 95       	com	r22
    3ad4:	70 95       	com	r23
    3ad6:	80 95       	com	r24
    3ad8:	90 95       	com	r25
    3ada:	9b 01       	movw	r18, r22
    3adc:	ac 01       	movw	r20, r24
    3ade:	bd 01       	movw	r22, r26
    3ae0:	cf 01       	movw	r24, r30
    3ae2:	08 95       	ret

00003ae4 <__tablejump2__>:
    3ae4:	ee 0f       	add	r30, r30
    3ae6:	ff 1f       	adc	r31, r31
    3ae8:	88 1f       	adc	r24, r24
    3aea:	8b bf       	out	0x3b, r24	; 59
    3aec:	07 90       	elpm	r0, Z+
    3aee:	f6 91       	elpm	r31, Z
    3af0:	e0 2d       	mov	r30, r0
    3af2:	1b be       	out	0x3b, r1	; 59
    3af4:	19 94       	eijmp

00003af6 <__muldi3>:
    3af6:	df 93       	push	r29
    3af8:	cf 93       	push	r28
    3afa:	1f 93       	push	r17
    3afc:	0f 93       	push	r16
    3afe:	9a 9d       	mul	r25, r10
    3b00:	f0 2d       	mov	r31, r0
    3b02:	21 9f       	mul	r18, r17
    3b04:	f0 0d       	add	r31, r0
    3b06:	8b 9d       	mul	r24, r11
    3b08:	f0 0d       	add	r31, r0
    3b0a:	8a 9d       	mul	r24, r10
    3b0c:	e0 2d       	mov	r30, r0
    3b0e:	f1 0d       	add	r31, r1
    3b10:	03 9f       	mul	r16, r19
    3b12:	f0 0d       	add	r31, r0
    3b14:	02 9f       	mul	r16, r18
    3b16:	e0 0d       	add	r30, r0
    3b18:	f1 1d       	adc	r31, r1
    3b1a:	4e 9d       	mul	r20, r14
    3b1c:	e0 0d       	add	r30, r0
    3b1e:	f1 1d       	adc	r31, r1
    3b20:	5e 9d       	mul	r21, r14
    3b22:	f0 0d       	add	r31, r0
    3b24:	4f 9d       	mul	r20, r15
    3b26:	f0 0d       	add	r31, r0
    3b28:	7f 93       	push	r23
    3b2a:	6f 93       	push	r22
    3b2c:	bf 92       	push	r11
    3b2e:	af 92       	push	r10
    3b30:	5f 93       	push	r21
    3b32:	4f 93       	push	r20
    3b34:	d5 01       	movw	r26, r10
    3b36:	a2 d0       	rcall	.+324    	; 0x3c7c <__umulhisi3>
    3b38:	8b 01       	movw	r16, r22
    3b3a:	ac 01       	movw	r20, r24
    3b3c:	d7 01       	movw	r26, r14
    3b3e:	9e d0       	rcall	.+316    	; 0x3c7c <__umulhisi3>
    3b40:	eb 01       	movw	r28, r22
    3b42:	e8 0f       	add	r30, r24
    3b44:	f9 1f       	adc	r31, r25
    3b46:	d6 01       	movw	r26, r12
    3b48:	1f d0       	rcall	.+62     	; 0x3b88 <__muldi3_6>
    3b4a:	2f 91       	pop	r18
    3b4c:	3f 91       	pop	r19
    3b4e:	d6 01       	movw	r26, r12
    3b50:	95 d0       	rcall	.+298    	; 0x3c7c <__umulhisi3>
    3b52:	c6 0f       	add	r28, r22
    3b54:	d7 1f       	adc	r29, r23
    3b56:	e8 1f       	adc	r30, r24
    3b58:	f9 1f       	adc	r31, r25
    3b5a:	af 91       	pop	r26
    3b5c:	bf 91       	pop	r27
    3b5e:	14 d0       	rcall	.+40     	; 0x3b88 <__muldi3_6>
    3b60:	2f 91       	pop	r18
    3b62:	3f 91       	pop	r19
    3b64:	8b d0       	rcall	.+278    	; 0x3c7c <__umulhisi3>
    3b66:	c6 0f       	add	r28, r22
    3b68:	d7 1f       	adc	r29, r23
    3b6a:	e8 1f       	adc	r30, r24
    3b6c:	f9 1f       	adc	r31, r25
    3b6e:	d6 01       	movw	r26, r12
    3b70:	85 d0       	rcall	.+266    	; 0x3c7c <__umulhisi3>
    3b72:	e6 0f       	add	r30, r22
    3b74:	f7 1f       	adc	r31, r23
    3b76:	98 01       	movw	r18, r16
    3b78:	be 01       	movw	r22, r28
    3b7a:	cf 01       	movw	r24, r30
    3b7c:	11 24       	eor	r1, r1
    3b7e:	0f 91       	pop	r16
    3b80:	1f 91       	pop	r17
    3b82:	cf 91       	pop	r28
    3b84:	df 91       	pop	r29
    3b86:	08 95       	ret

00003b88 <__muldi3_6>:
    3b88:	79 d0       	rcall	.+242    	; 0x3c7c <__umulhisi3>
    3b8a:	46 0f       	add	r20, r22
    3b8c:	57 1f       	adc	r21, r23
    3b8e:	c8 1f       	adc	r28, r24
    3b90:	d9 1f       	adc	r29, r25
    3b92:	08 f4       	brcc	.+2      	; 0x3b96 <__muldi3_6+0xe>
    3b94:	31 96       	adiw	r30, 0x01	; 1
    3b96:	08 95       	ret

00003b98 <__umoddi3>:
    3b98:	68 94       	set
    3b9a:	01 c0       	rjmp	.+2      	; 0x3b9e <__udivdi3_umoddi3>

00003b9c <__udivdi3>:
    3b9c:	e8 94       	clt

00003b9e <__udivdi3_umoddi3>:
    3b9e:	8f 92       	push	r8
    3ba0:	9f 92       	push	r9
    3ba2:	cf 93       	push	r28
    3ba4:	df 93       	push	r29
    3ba6:	05 d0       	rcall	.+10     	; 0x3bb2 <__udivmod64>
    3ba8:	df 91       	pop	r29
    3baa:	cf 91       	pop	r28
    3bac:	9f 90       	pop	r9
    3bae:	8f 90       	pop	r8
    3bb0:	08 95       	ret

00003bb2 <__udivmod64>:
    3bb2:	88 24       	eor	r8, r8
    3bb4:	99 24       	eor	r9, r9
    3bb6:	f4 01       	movw	r30, r8
    3bb8:	e4 01       	movw	r28, r8
    3bba:	b0 e4       	ldi	r27, 0x40	; 64
    3bbc:	9f 93       	push	r25
    3bbe:	aa 27       	eor	r26, r26
    3bc0:	9a 15       	cp	r25, r10
    3bc2:	8b 04       	cpc	r8, r11
    3bc4:	9c 04       	cpc	r9, r12
    3bc6:	ed 05       	cpc	r30, r13
    3bc8:	fe 05       	cpc	r31, r14
    3bca:	cf 05       	cpc	r28, r15
    3bcc:	d0 07       	cpc	r29, r16
    3bce:	a1 07       	cpc	r26, r17
    3bd0:	98 f4       	brcc	.+38     	; 0x3bf8 <__udivmod64+0x46>
    3bd2:	ad 2f       	mov	r26, r29
    3bd4:	dc 2f       	mov	r29, r28
    3bd6:	cf 2f       	mov	r28, r31
    3bd8:	fe 2f       	mov	r31, r30
    3bda:	e9 2d       	mov	r30, r9
    3bdc:	98 2c       	mov	r9, r8
    3bde:	89 2e       	mov	r8, r25
    3be0:	98 2f       	mov	r25, r24
    3be2:	87 2f       	mov	r24, r23
    3be4:	76 2f       	mov	r23, r22
    3be6:	65 2f       	mov	r22, r21
    3be8:	54 2f       	mov	r21, r20
    3bea:	43 2f       	mov	r20, r19
    3bec:	32 2f       	mov	r19, r18
    3bee:	22 27       	eor	r18, r18
    3bf0:	b8 50       	subi	r27, 0x08	; 8
    3bf2:	31 f7       	brne	.-52     	; 0x3bc0 <__udivmod64+0xe>
    3bf4:	bf 91       	pop	r27
    3bf6:	27 c0       	rjmp	.+78     	; 0x3c46 <__udivmod64+0x94>
    3bf8:	1b 2e       	mov	r1, r27
    3bfa:	bf 91       	pop	r27
    3bfc:	bb 27       	eor	r27, r27
    3bfe:	22 0f       	add	r18, r18
    3c00:	33 1f       	adc	r19, r19
    3c02:	44 1f       	adc	r20, r20
    3c04:	55 1f       	adc	r21, r21
    3c06:	66 1f       	adc	r22, r22
    3c08:	77 1f       	adc	r23, r23
    3c0a:	88 1f       	adc	r24, r24
    3c0c:	99 1f       	adc	r25, r25
    3c0e:	88 1c       	adc	r8, r8
    3c10:	99 1c       	adc	r9, r9
    3c12:	ee 1f       	adc	r30, r30
    3c14:	ff 1f       	adc	r31, r31
    3c16:	cc 1f       	adc	r28, r28
    3c18:	dd 1f       	adc	r29, r29
    3c1a:	aa 1f       	adc	r26, r26
    3c1c:	bb 1f       	adc	r27, r27
    3c1e:	8a 14       	cp	r8, r10
    3c20:	9b 04       	cpc	r9, r11
    3c22:	ec 05       	cpc	r30, r12
    3c24:	fd 05       	cpc	r31, r13
    3c26:	ce 05       	cpc	r28, r14
    3c28:	df 05       	cpc	r29, r15
    3c2a:	a0 07       	cpc	r26, r16
    3c2c:	b1 07       	cpc	r27, r17
    3c2e:	48 f0       	brcs	.+18     	; 0x3c42 <__udivmod64+0x90>
    3c30:	8a 18       	sub	r8, r10
    3c32:	9b 08       	sbc	r9, r11
    3c34:	ec 09       	sbc	r30, r12
    3c36:	fd 09       	sbc	r31, r13
    3c38:	ce 09       	sbc	r28, r14
    3c3a:	df 09       	sbc	r29, r15
    3c3c:	a0 0b       	sbc	r26, r16
    3c3e:	b1 0b       	sbc	r27, r17
    3c40:	21 60       	ori	r18, 0x01	; 1
    3c42:	1a 94       	dec	r1
    3c44:	e1 f6       	brne	.-72     	; 0x3bfe <__udivmod64+0x4c>
    3c46:	2e f4       	brtc	.+10     	; 0x3c52 <__udivmod64+0xa0>
    3c48:	94 01       	movw	r18, r8
    3c4a:	af 01       	movw	r20, r30
    3c4c:	be 01       	movw	r22, r28
    3c4e:	cd 01       	movw	r24, r26
    3c50:	00 0c       	add	r0, r0
    3c52:	08 95       	ret

00003c54 <__udivmodhi4>:
    3c54:	aa 1b       	sub	r26, r26
    3c56:	bb 1b       	sub	r27, r27
    3c58:	51 e1       	ldi	r21, 0x11	; 17
    3c5a:	07 c0       	rjmp	.+14     	; 0x3c6a <__udivmodhi4_ep>

00003c5c <__udivmodhi4_loop>:
    3c5c:	aa 1f       	adc	r26, r26
    3c5e:	bb 1f       	adc	r27, r27
    3c60:	a6 17       	cp	r26, r22
    3c62:	b7 07       	cpc	r27, r23
    3c64:	10 f0       	brcs	.+4      	; 0x3c6a <__udivmodhi4_ep>
    3c66:	a6 1b       	sub	r26, r22
    3c68:	b7 0b       	sbc	r27, r23

00003c6a <__udivmodhi4_ep>:
    3c6a:	88 1f       	adc	r24, r24
    3c6c:	99 1f       	adc	r25, r25
    3c6e:	5a 95       	dec	r21
    3c70:	a9 f7       	brne	.-22     	; 0x3c5c <__udivmodhi4_loop>
    3c72:	80 95       	com	r24
    3c74:	90 95       	com	r25
    3c76:	bc 01       	movw	r22, r24
    3c78:	cd 01       	movw	r24, r26
    3c7a:	08 95       	ret

00003c7c <__umulhisi3>:
    3c7c:	a2 9f       	mul	r26, r18
    3c7e:	b0 01       	movw	r22, r0
    3c80:	b3 9f       	mul	r27, r19
    3c82:	c0 01       	movw	r24, r0
    3c84:	a3 9f       	mul	r26, r19
    3c86:	70 0d       	add	r23, r0
    3c88:	81 1d       	adc	r24, r1
    3c8a:	11 24       	eor	r1, r1
    3c8c:	91 1d       	adc	r25, r1
    3c8e:	b2 9f       	mul	r27, r18
    3c90:	70 0d       	add	r23, r0
    3c92:	81 1d       	adc	r24, r1
    3c94:	11 24       	eor	r1, r1
    3c96:	91 1d       	adc	r25, r1
    3c98:	08 95       	ret

00003c9a <atoi>:
    3c9a:	fc 01       	movw	r30, r24
    3c9c:	88 27       	eor	r24, r24
    3c9e:	99 27       	eor	r25, r25
    3ca0:	e8 94       	clt
    3ca2:	21 91       	ld	r18, Z+
    3ca4:	20 32       	cpi	r18, 0x20	; 32
    3ca6:	e9 f3       	breq	.-6      	; 0x3ca2 <atoi+0x8>
    3ca8:	29 30       	cpi	r18, 0x09	; 9
    3caa:	10 f0       	brcs	.+4      	; 0x3cb0 <atoi+0x16>
    3cac:	2e 30       	cpi	r18, 0x0E	; 14
    3cae:	c8 f3       	brcs	.-14     	; 0x3ca2 <atoi+0x8>
    3cb0:	2b 32       	cpi	r18, 0x2B	; 43
    3cb2:	39 f0       	breq	.+14     	; 0x3cc2 <atoi+0x28>
    3cb4:	2d 32       	cpi	r18, 0x2D	; 45
    3cb6:	31 f4       	brne	.+12     	; 0x3cc4 <atoi+0x2a>
    3cb8:	68 94       	set
    3cba:	03 c0       	rjmp	.+6      	; 0x3cc2 <atoi+0x28>
    3cbc:	4d d0       	rcall	.+154    	; 0x3d58 <__mulhi_const_10>
    3cbe:	82 0f       	add	r24, r18
    3cc0:	91 1d       	adc	r25, r1
    3cc2:	21 91       	ld	r18, Z+
    3cc4:	20 53       	subi	r18, 0x30	; 48
    3cc6:	2a 30       	cpi	r18, 0x0A	; 10
    3cc8:	c8 f3       	brcs	.-14     	; 0x3cbc <atoi+0x22>
    3cca:	1e f4       	brtc	.+6      	; 0x3cd2 <atoi+0x38>
    3ccc:	90 95       	com	r25
    3cce:	81 95       	neg	r24
    3cd0:	9f 4f       	sbci	r25, 0xFF	; 255
    3cd2:	08 95       	ret

00003cd4 <memcpy>:
    3cd4:	fb 01       	movw	r30, r22
    3cd6:	dc 01       	movw	r26, r24
    3cd8:	02 c0       	rjmp	.+4      	; 0x3cde <memcpy+0xa>
    3cda:	01 90       	ld	r0, Z+
    3cdc:	0d 92       	st	X+, r0
    3cde:	41 50       	subi	r20, 0x01	; 1
    3ce0:	50 40       	sbci	r21, 0x00	; 0
    3ce2:	d8 f7       	brcc	.-10     	; 0x3cda <memcpy+0x6>
    3ce4:	08 95       	ret

00003ce6 <strcat>:
    3ce6:	fb 01       	movw	r30, r22
    3ce8:	dc 01       	movw	r26, r24
    3cea:	0d 90       	ld	r0, X+
    3cec:	00 20       	and	r0, r0
    3cee:	e9 f7       	brne	.-6      	; 0x3cea <strcat+0x4>
    3cf0:	11 97       	sbiw	r26, 0x01	; 1
    3cf2:	01 90       	ld	r0, Z+
    3cf4:	0d 92       	st	X+, r0
    3cf6:	00 20       	and	r0, r0
    3cf8:	e1 f7       	brne	.-8      	; 0x3cf2 <strcat+0xc>
    3cfa:	08 95       	ret

00003cfc <strstr>:
    3cfc:	fb 01       	movw	r30, r22
    3cfe:	51 91       	ld	r21, Z+
    3d00:	55 23       	and	r21, r21
    3d02:	a9 f0       	breq	.+42     	; 0x3d2e <strstr+0x32>
    3d04:	bf 01       	movw	r22, r30
    3d06:	dc 01       	movw	r26, r24
    3d08:	4d 91       	ld	r20, X+
    3d0a:	45 17       	cp	r20, r21
    3d0c:	41 11       	cpse	r20, r1
    3d0e:	e1 f7       	brne	.-8      	; 0x3d08 <strstr+0xc>
    3d10:	59 f4       	brne	.+22     	; 0x3d28 <strstr+0x2c>
    3d12:	cd 01       	movw	r24, r26
    3d14:	01 90       	ld	r0, Z+
    3d16:	00 20       	and	r0, r0
    3d18:	49 f0       	breq	.+18     	; 0x3d2c <strstr+0x30>
    3d1a:	4d 91       	ld	r20, X+
    3d1c:	40 15       	cp	r20, r0
    3d1e:	41 11       	cpse	r20, r1
    3d20:	c9 f3       	breq	.-14     	; 0x3d14 <strstr+0x18>
    3d22:	fb 01       	movw	r30, r22
    3d24:	41 11       	cpse	r20, r1
    3d26:	ef cf       	rjmp	.-34     	; 0x3d06 <strstr+0xa>
    3d28:	81 e0       	ldi	r24, 0x01	; 1
    3d2a:	90 e0       	ldi	r25, 0x00	; 0
    3d2c:	01 97       	sbiw	r24, 0x01	; 1
    3d2e:	08 95       	ret

00003d30 <itoa>:
    3d30:	45 32       	cpi	r20, 0x25	; 37
    3d32:	51 05       	cpc	r21, r1
    3d34:	18 f4       	brcc	.+6      	; 0x3d3c <itoa+0xc>
    3d36:	42 30       	cpi	r20, 0x02	; 2
    3d38:	08 f0       	brcs	.+2      	; 0x3d3c <itoa+0xc>
    3d3a:	04 c0       	rjmp	.+8      	; 0x3d44 <__itoa_ncheck>
    3d3c:	fb 01       	movw	r30, r22
    3d3e:	10 82       	st	Z, r1
    3d40:	cb 01       	movw	r24, r22
    3d42:	08 95       	ret

00003d44 <__itoa_ncheck>:
    3d44:	bb 27       	eor	r27, r27
    3d46:	4a 30       	cpi	r20, 0x0A	; 10
    3d48:	31 f4       	brne	.+12     	; 0x3d56 <__itoa_ncheck+0x12>
    3d4a:	99 23       	and	r25, r25
    3d4c:	22 f4       	brpl	.+8      	; 0x3d56 <__itoa_ncheck+0x12>
    3d4e:	bd e2       	ldi	r27, 0x2D	; 45
    3d50:	90 95       	com	r25
    3d52:	81 95       	neg	r24
    3d54:	9f 4f       	sbci	r25, 0xFF	; 255
    3d56:	09 c0       	rjmp	.+18     	; 0x3d6a <__utoa_common>

00003d58 <__mulhi_const_10>:
    3d58:	7a e0       	ldi	r23, 0x0A	; 10
    3d5a:	97 9f       	mul	r25, r23
    3d5c:	90 2d       	mov	r25, r0
    3d5e:	87 9f       	mul	r24, r23
    3d60:	80 2d       	mov	r24, r0
    3d62:	91 0d       	add	r25, r1
    3d64:	11 24       	eor	r1, r1
    3d66:	08 95       	ret

00003d68 <__utoa_ncheck>:
    3d68:	bb 27       	eor	r27, r27

00003d6a <__utoa_common>:
    3d6a:	fb 01       	movw	r30, r22
    3d6c:	55 27       	eor	r21, r21
    3d6e:	aa 27       	eor	r26, r26
    3d70:	88 0f       	add	r24, r24
    3d72:	99 1f       	adc	r25, r25
    3d74:	aa 1f       	adc	r26, r26
    3d76:	a4 17       	cp	r26, r20
    3d78:	10 f0       	brcs	.+4      	; 0x3d7e <__utoa_common+0x14>
    3d7a:	a4 1b       	sub	r26, r20
    3d7c:	83 95       	inc	r24
    3d7e:	50 51       	subi	r21, 0x10	; 16
    3d80:	b9 f7       	brne	.-18     	; 0x3d70 <__utoa_common+0x6>
    3d82:	a0 5d       	subi	r26, 0xD0	; 208
    3d84:	aa 33       	cpi	r26, 0x3A	; 58
    3d86:	08 f0       	brcs	.+2      	; 0x3d8a <__utoa_common+0x20>
    3d88:	a9 5d       	subi	r26, 0xD9	; 217
    3d8a:	a1 93       	st	Z+, r26
    3d8c:	00 97       	sbiw	r24, 0x00	; 0
    3d8e:	79 f7       	brne	.-34     	; 0x3d6e <__utoa_common+0x4>
    3d90:	b1 11       	cpse	r27, r1
    3d92:	b1 93       	st	Z+, r27
    3d94:	11 92       	st	Z+, r1
    3d96:	cb 01       	movw	r24, r22
    3d98:	00 c0       	rjmp	.+0      	; 0x3d9a <strrev>

00003d9a <strrev>:
    3d9a:	dc 01       	movw	r26, r24
    3d9c:	fc 01       	movw	r30, r24
    3d9e:	67 2f       	mov	r22, r23
    3da0:	71 91       	ld	r23, Z+
    3da2:	77 23       	and	r23, r23
    3da4:	e1 f7       	brne	.-8      	; 0x3d9e <strrev+0x4>
    3da6:	32 97       	sbiw	r30, 0x02	; 2
    3da8:	04 c0       	rjmp	.+8      	; 0x3db2 <strrev+0x18>
    3daa:	7c 91       	ld	r23, X
    3dac:	6d 93       	st	X+, r22
    3dae:	70 83       	st	Z, r23
    3db0:	62 91       	ld	r22, -Z
    3db2:	ae 17       	cp	r26, r30
    3db4:	bf 07       	cpc	r27, r31
    3db6:	c8 f3       	brcs	.-14     	; 0x3daa <strrev+0x10>
    3db8:	08 95       	ret

00003dba <_exit>:
    3dba:	f8 94       	cli

00003dbc <__stop_program>:
    3dbc:	ff cf       	rjmp	.-2      	; 0x3dbc <__stop_program>
